
Optional file libmchp_peripheral.a not found

Optional file libmchp_peripheral_32MX795F512L.a not found
Archive member included because of file (symbol)

c:/program files (x86)/microchip/xc32/v1.42/bin/bin/../../lib/gcc/pic32mx/4.8.3/../../../../pic32mx/lib\libpic32.a(memcpy.o)
                              build/default/production/_ext/357001740/queue.o (memcpy)
c:/program files (x86)/microchip/xc32/v1.42/bin/bin/../../lib/gcc/pic32mx/4.8.3/../../../../pic32mx/lib\libpic32.a(memset.o)
                              build/default/production/_ext/357001740/tasks.o (memset)
c:/program files (x86)/microchip/xc32/v1.42/bin/bin/../../lib/gcc/pic32mx/4.8.3/../../../../pic32mx/lib\libpic32.a(default-bootstrap-exception-handler.o)
                              c:/program files (x86)/microchip/xc32/v1.42/bin/bin/../../lib/gcc/pic32mx/4.8.3/../../../../pic32mx/lib/./proc/32MX795F512L/crt0_mips32r2.o (_bootstrap_exception_handler)
c:/program files (x86)/microchip/xc32/v1.42/bin/bin/../../lib/gcc/pic32mx/4.8.3/../../../../pic32mx/lib\libpic32.a(default-on-reset.o)
                              c:/program files (x86)/microchip/xc32/v1.42/bin/bin/../../lib/gcc/pic32mx/4.8.3/../../../../pic32mx/lib/./proc/32MX795F512L/crt0_mips32r2.o (_on_reset)
c:/program files (x86)/microchip/xc32/v1.42/bin/bin/../../lib/gcc/pic32mx/4.8.3/../../../../pic32mx/lib\libpic32.a(default-on-bootstrap.o)
                              c:/program files (x86)/microchip/xc32/v1.42/bin/bin/../../lib/gcc/pic32mx/4.8.3/../../../../pic32mx/lib/./proc/32MX795F512L/crt0_mips32r2.o (_on_bootstrap)
c:/program files (x86)/microchip/xc32/v1.42/bin/bin/../../lib/gcc/pic32mx/4.8.3/../../../../pic32mx/lib\libpic32.a(default-nmi-handler.o)
                              c:/program files (x86)/microchip/xc32/v1.42/bin/bin/../../lib/gcc/pic32mx/4.8.3/../../../../pic32mx/lib/./proc/32MX795F512L/crt0_mips32r2.o (_nmi_handler)
c:/program files (x86)/microchip/xc32/v1.42/bin/bin/../../lib/gcc/pic32mx/4.8.3/../../../../pic32mx/lib\libpic32.a(general-exception.o)
                              c:/program files (x86)/microchip/xc32/v1.42/bin/bin/../../lib/gcc/pic32mx/4.8.3/../../../../pic32mx/lib/./proc/32MX795F512L/crt0_mips32r2.o (_general_exception_context)
c:/program files (x86)/microchip/xc32/v1.42/bin/bin/../../lib/gcc/pic32mx/4.8.3/../../../../pic32mx/lib\libpic32.a(vector0.o)
                              c:/program files (x86)/microchip/xc32/v1.42/bin/bin/../../lib/gcc/pic32mx/4.8.3/../../../../pic32mx/lib/./proc/32MX795F512L\default_isr_vectors.o (__vector_dispatch_0)
c:/program files (x86)/microchip/xc32/v1.42/bin/bin/../../lib/gcc/pic32mx/4.8.3/../../../../pic32mx/lib\libpic32.a(vector2.o)
                              c:/program files (x86)/microchip/xc32/v1.42/bin/bin/../../lib/gcc/pic32mx/4.8.3/../../../../pic32mx/lib/./proc/32MX795F512L\default_isr_vectors.o (__vector_dispatch_2)
c:/program files (x86)/microchip/xc32/v1.42/bin/bin/../../lib/gcc/pic32mx/4.8.3/../../../../pic32mx/lib\libpic32.a(vector3.o)
                              c:/program files (x86)/microchip/xc32/v1.42/bin/bin/../../lib/gcc/pic32mx/4.8.3/../../../../pic32mx/lib/./proc/32MX795F512L\default_isr_vectors.o (__vector_dispatch_3)
c:/program files (x86)/microchip/xc32/v1.42/bin/bin/../../lib/gcc/pic32mx/4.8.3/../../../../pic32mx/lib\libpic32.a(vector5.o)
                              c:/program files (x86)/microchip/xc32/v1.42/bin/bin/../../lib/gcc/pic32mx/4.8.3/../../../../pic32mx/lib/./proc/32MX795F512L\default_isr_vectors.o (__vector_dispatch_5)
c:/program files (x86)/microchip/xc32/v1.42/bin/bin/../../lib/gcc/pic32mx/4.8.3/../../../../pic32mx/lib\libpic32.a(vector6.o)
                              c:/program files (x86)/microchip/xc32/v1.42/bin/bin/../../lib/gcc/pic32mx/4.8.3/../../../../pic32mx/lib/./proc/32MX795F512L\default_isr_vectors.o (__vector_dispatch_6)
c:/program files (x86)/microchip/xc32/v1.42/bin/bin/../../lib/gcc/pic32mx/4.8.3/../../../../pic32mx/lib\libpic32.a(vector7.o)
                              c:/program files (x86)/microchip/xc32/v1.42/bin/bin/../../lib/gcc/pic32mx/4.8.3/../../../../pic32mx/lib/./proc/32MX795F512L\default_isr_vectors.o (__vector_dispatch_7)
c:/program files (x86)/microchip/xc32/v1.42/bin/bin/../../lib/gcc/pic32mx/4.8.3/../../../../pic32mx/lib\libpic32.a(vector8.o)
                              c:/program files (x86)/microchip/xc32/v1.42/bin/bin/../../lib/gcc/pic32mx/4.8.3/../../../../pic32mx/lib/./proc/32MX795F512L\default_isr_vectors.o (__vector_dispatch_8)
c:/program files (x86)/microchip/xc32/v1.42/bin/bin/../../lib/gcc/pic32mx/4.8.3/../../../../pic32mx/lib\libpic32.a(vector9.o)
                              c:/program files (x86)/microchip/xc32/v1.42/bin/bin/../../lib/gcc/pic32mx/4.8.3/../../../../pic32mx/lib/./proc/32MX795F512L\default_isr_vectors.o (__vector_dispatch_9)
c:/program files (x86)/microchip/xc32/v1.42/bin/bin/../../lib/gcc/pic32mx/4.8.3/../../../../pic32mx/lib\libpic32.a(vector10.o)
                              c:/program files (x86)/microchip/xc32/v1.42/bin/bin/../../lib/gcc/pic32mx/4.8.3/../../../../pic32mx/lib/./proc/32MX795F512L\default_isr_vectors.o (__vector_dispatch_10)
c:/program files (x86)/microchip/xc32/v1.42/bin/bin/../../lib/gcc/pic32mx/4.8.3/../../../../pic32mx/lib\libpic32.a(vector11.o)
                              c:/program files (x86)/microchip/xc32/v1.42/bin/bin/../../lib/gcc/pic32mx/4.8.3/../../../../pic32mx/lib/./proc/32MX795F512L\default_isr_vectors.o (__vector_dispatch_11)
c:/program files (x86)/microchip/xc32/v1.42/bin/bin/../../lib/gcc/pic32mx/4.8.3/../../../../pic32mx/lib\libpic32.a(vector12.o)
                              c:/program files (x86)/microchip/xc32/v1.42/bin/bin/../../lib/gcc/pic32mx/4.8.3/../../../../pic32mx/lib/./proc/32MX795F512L\default_isr_vectors.o (__vector_dispatch_12)
c:/program files (x86)/microchip/xc32/v1.42/bin/bin/../../lib/gcc/pic32mx/4.8.3/../../../../pic32mx/lib\libpic32.a(vector13.o)
                              c:/program files (x86)/microchip/xc32/v1.42/bin/bin/../../lib/gcc/pic32mx/4.8.3/../../../../pic32mx/lib/./proc/32MX795F512L\default_isr_vectors.o (__vector_dispatch_13)
c:/program files (x86)/microchip/xc32/v1.42/bin/bin/../../lib/gcc/pic32mx/4.8.3/../../../../pic32mx/lib\libpic32.a(vector14.o)
                              c:/program files (x86)/microchip/xc32/v1.42/bin/bin/../../lib/gcc/pic32mx/4.8.3/../../../../pic32mx/lib/./proc/32MX795F512L\default_isr_vectors.o (__vector_dispatch_14)
c:/program files (x86)/microchip/xc32/v1.42/bin/bin/../../lib/gcc/pic32mx/4.8.3/../../../../pic32mx/lib\libpic32.a(vector15.o)
                              c:/program files (x86)/microchip/xc32/v1.42/bin/bin/../../lib/gcc/pic32mx/4.8.3/../../../../pic32mx/lib/./proc/32MX795F512L\default_isr_vectors.o (__vector_dispatch_15)
c:/program files (x86)/microchip/xc32/v1.42/bin/bin/../../lib/gcc/pic32mx/4.8.3/../../../../pic32mx/lib\libpic32.a(vector16.o)
                              c:/program files (x86)/microchip/xc32/v1.42/bin/bin/../../lib/gcc/pic32mx/4.8.3/../../../../pic32mx/lib/./proc/32MX795F512L\default_isr_vectors.o (__vector_dispatch_16)
c:/program files (x86)/microchip/xc32/v1.42/bin/bin/../../lib/gcc/pic32mx/4.8.3/../../../../pic32mx/lib\libpic32.a(vector17.o)
                              c:/program files (x86)/microchip/xc32/v1.42/bin/bin/../../lib/gcc/pic32mx/4.8.3/../../../../pic32mx/lib/./proc/32MX795F512L\default_isr_vectors.o (__vector_dispatch_17)
c:/program files (x86)/microchip/xc32/v1.42/bin/bin/../../lib/gcc/pic32mx/4.8.3/../../../../pic32mx/lib\libpic32.a(vector18.o)
                              c:/program files (x86)/microchip/xc32/v1.42/bin/bin/../../lib/gcc/pic32mx/4.8.3/../../../../pic32mx/lib/./proc/32MX795F512L\default_isr_vectors.o (__vector_dispatch_18)
c:/program files (x86)/microchip/xc32/v1.42/bin/bin/../../lib/gcc/pic32mx/4.8.3/../../../../pic32mx/lib\libpic32.a(vector19.o)
                              c:/program files (x86)/microchip/xc32/v1.42/bin/bin/../../lib/gcc/pic32mx/4.8.3/../../../../pic32mx/lib/./proc/32MX795F512L\default_isr_vectors.o (__vector_dispatch_19)
c:/program files (x86)/microchip/xc32/v1.42/bin/bin/../../lib/gcc/pic32mx/4.8.3/../../../../pic32mx/lib\libpic32.a(vector20.o)
                              c:/program files (x86)/microchip/xc32/v1.42/bin/bin/../../lib/gcc/pic32mx/4.8.3/../../../../pic32mx/lib/./proc/32MX795F512L\default_isr_vectors.o (__vector_dispatch_20)
c:/program files (x86)/microchip/xc32/v1.42/bin/bin/../../lib/gcc/pic32mx/4.8.3/../../../../pic32mx/lib\libpic32.a(vector21.o)
                              c:/program files (x86)/microchip/xc32/v1.42/bin/bin/../../lib/gcc/pic32mx/4.8.3/../../../../pic32mx/lib/./proc/32MX795F512L\default_isr_vectors.o (__vector_dispatch_21)
c:/program files (x86)/microchip/xc32/v1.42/bin/bin/../../lib/gcc/pic32mx/4.8.3/../../../../pic32mx/lib\libpic32.a(vector22.o)
                              c:/program files (x86)/microchip/xc32/v1.42/bin/bin/../../lib/gcc/pic32mx/4.8.3/../../../../pic32mx/lib/./proc/32MX795F512L\default_isr_vectors.o (__vector_dispatch_22)
c:/program files (x86)/microchip/xc32/v1.42/bin/bin/../../lib/gcc/pic32mx/4.8.3/../../../../pic32mx/lib\libpic32.a(vector23.o)
                              c:/program files (x86)/microchip/xc32/v1.42/bin/bin/../../lib/gcc/pic32mx/4.8.3/../../../../pic32mx/lib/./proc/32MX795F512L\default_isr_vectors.o (__vector_dispatch_23)
c:/program files (x86)/microchip/xc32/v1.42/bin/bin/../../lib/gcc/pic32mx/4.8.3/../../../../pic32mx/lib\libpic32.a(vector25.o)
                              c:/program files (x86)/microchip/xc32/v1.42/bin/bin/../../lib/gcc/pic32mx/4.8.3/../../../../pic32mx/lib/./proc/32MX795F512L\default_isr_vectors.o (__vector_dispatch_25)
c:/program files (x86)/microchip/xc32/v1.42/bin/bin/../../lib/gcc/pic32mx/4.8.3/../../../../pic32mx/lib\libpic32.a(vector26.o)
                              c:/program files (x86)/microchip/xc32/v1.42/bin/bin/../../lib/gcc/pic32mx/4.8.3/../../../../pic32mx/lib/./proc/32MX795F512L\default_isr_vectors.o (__vector_dispatch_26)
c:/program files (x86)/microchip/xc32/v1.42/bin/bin/../../lib/gcc/pic32mx/4.8.3/../../../../pic32mx/lib\libpic32.a(vector28.o)
                              c:/program files (x86)/microchip/xc32/v1.42/bin/bin/../../lib/gcc/pic32mx/4.8.3/../../../../pic32mx/lib/./proc/32MX795F512L\default_isr_vectors.o (__vector_dispatch_28)
c:/program files (x86)/microchip/xc32/v1.42/bin/bin/../../lib/gcc/pic32mx/4.8.3/../../../../pic32mx/lib\libpic32.a(vector29.o)
                              c:/program files (x86)/microchip/xc32/v1.42/bin/bin/../../lib/gcc/pic32mx/4.8.3/../../../../pic32mx/lib/./proc/32MX795F512L\default_isr_vectors.o (__vector_dispatch_29)
c:/program files (x86)/microchip/xc32/v1.42/bin/bin/../../lib/gcc/pic32mx/4.8.3/../../../../pic32mx/lib\libpic32.a(vector30.o)
                              c:/program files (x86)/microchip/xc32/v1.42/bin/bin/../../lib/gcc/pic32mx/4.8.3/../../../../pic32mx/lib/./proc/32MX795F512L\default_isr_vectors.o (__vector_dispatch_30)
c:/program files (x86)/microchip/xc32/v1.42/bin/bin/../../lib/gcc/pic32mx/4.8.3/../../../../pic32mx/lib\libpic32.a(vector31.o)
                              c:/program files (x86)/microchip/xc32/v1.42/bin/bin/../../lib/gcc/pic32mx/4.8.3/../../../../pic32mx/lib/./proc/32MX795F512L\default_isr_vectors.o (__vector_dispatch_31)
c:/program files (x86)/microchip/xc32/v1.42/bin/bin/../../lib/gcc/pic32mx/4.8.3/../../../../pic32mx/lib\libpic32.a(vector32.o)
                              c:/program files (x86)/microchip/xc32/v1.42/bin/bin/../../lib/gcc/pic32mx/4.8.3/../../../../pic32mx/lib/./proc/32MX795F512L\default_isr_vectors.o (__vector_dispatch_32)
c:/program files (x86)/microchip/xc32/v1.42/bin/bin/../../lib/gcc/pic32mx/4.8.3/../../../../pic32mx/lib\libpic32.a(vector33.o)
                              c:/program files (x86)/microchip/xc32/v1.42/bin/bin/../../lib/gcc/pic32mx/4.8.3/../../../../pic32mx/lib/./proc/32MX795F512L\default_isr_vectors.o (__vector_dispatch_33)
c:/program files (x86)/microchip/xc32/v1.42/bin/bin/../../lib/gcc/pic32mx/4.8.3/../../../../pic32mx/lib\libpic32.a(vector34.o)
                              c:/program files (x86)/microchip/xc32/v1.42/bin/bin/../../lib/gcc/pic32mx/4.8.3/../../../../pic32mx/lib/./proc/32MX795F512L\default_isr_vectors.o (__vector_dispatch_34)
c:/program files (x86)/microchip/xc32/v1.42/bin/bin/../../lib/gcc/pic32mx/4.8.3/../../../../pic32mx/lib\libpic32.a(vector35.o)
                              c:/program files (x86)/microchip/xc32/v1.42/bin/bin/../../lib/gcc/pic32mx/4.8.3/../../../../pic32mx/lib/./proc/32MX795F512L\default_isr_vectors.o (__vector_dispatch_35)
c:/program files (x86)/microchip/xc32/v1.42/bin/bin/../../lib/gcc/pic32mx/4.8.3/../../../../pic32mx/lib\libpic32.a(vector36.o)
                              c:/program files (x86)/microchip/xc32/v1.42/bin/bin/../../lib/gcc/pic32mx/4.8.3/../../../../pic32mx/lib/./proc/32MX795F512L\default_isr_vectors.o (__vector_dispatch_36)
c:/program files (x86)/microchip/xc32/v1.42/bin/bin/../../lib/gcc/pic32mx/4.8.3/../../../../pic32mx/lib\libpic32.a(vector37.o)
                              c:/program files (x86)/microchip/xc32/v1.42/bin/bin/../../lib/gcc/pic32mx/4.8.3/../../../../pic32mx/lib/./proc/32MX795F512L\default_isr_vectors.o (__vector_dispatch_37)
c:/program files (x86)/microchip/xc32/v1.42/bin/bin/../../lib/gcc/pic32mx/4.8.3/../../../../pic32mx/lib\libpic32.a(vector38.o)
                              c:/program files (x86)/microchip/xc32/v1.42/bin/bin/../../lib/gcc/pic32mx/4.8.3/../../../../pic32mx/lib/./proc/32MX795F512L\default_isr_vectors.o (__vector_dispatch_38)
c:/program files (x86)/microchip/xc32/v1.42/bin/bin/../../lib/gcc/pic32mx/4.8.3/../../../../pic32mx/lib\libpic32.a(vector39.o)
                              c:/program files (x86)/microchip/xc32/v1.42/bin/bin/../../lib/gcc/pic32mx/4.8.3/../../../../pic32mx/lib/./proc/32MX795F512L\default_isr_vectors.o (__vector_dispatch_39)
c:/program files (x86)/microchip/xc32/v1.42/bin/bin/../../lib/gcc/pic32mx/4.8.3/../../../../pic32mx/lib\libpic32.a(vector40.o)
                              c:/program files (x86)/microchip/xc32/v1.42/bin/bin/../../lib/gcc/pic32mx/4.8.3/../../../../pic32mx/lib/./proc/32MX795F512L\default_isr_vectors.o (__vector_dispatch_40)
c:/program files (x86)/microchip/xc32/v1.42/bin/bin/../../lib/gcc/pic32mx/4.8.3/../../../../pic32mx/lib\libpic32.a(vector41.o)
                              c:/program files (x86)/microchip/xc32/v1.42/bin/bin/../../lib/gcc/pic32mx/4.8.3/../../../../pic32mx/lib/./proc/32MX795F512L\default_isr_vectors.o (__vector_dispatch_41)
c:/program files (x86)/microchip/xc32/v1.42/bin/bin/../../lib/gcc/pic32mx/4.8.3/../../../../pic32mx/lib\libpic32.a(vector42.o)
                              c:/program files (x86)/microchip/xc32/v1.42/bin/bin/../../lib/gcc/pic32mx/4.8.3/../../../../pic32mx/lib/./proc/32MX795F512L\default_isr_vectors.o (__vector_dispatch_42)
c:/program files (x86)/microchip/xc32/v1.42/bin/bin/../../lib/gcc/pic32mx/4.8.3/../../../../pic32mx/lib\libpic32.a(vector43.o)
                              c:/program files (x86)/microchip/xc32/v1.42/bin/bin/../../lib/gcc/pic32mx/4.8.3/../../../../pic32mx/lib/./proc/32MX795F512L\default_isr_vectors.o (__vector_dispatch_43)
c:/program files (x86)/microchip/xc32/v1.42/bin/bin/../../lib/gcc/pic32mx/4.8.3/../../../../pic32mx/lib\libpic32.a(vector44.o)
                              c:/program files (x86)/microchip/xc32/v1.42/bin/bin/../../lib/gcc/pic32mx/4.8.3/../../../../pic32mx/lib/./proc/32MX795F512L\default_isr_vectors.o (__vector_dispatch_44)
c:/program files (x86)/microchip/xc32/v1.42/bin/bin/../../lib/gcc/pic32mx/4.8.3/../../../../pic32mx/lib\libpic32.a(vector45.o)
                              c:/program files (x86)/microchip/xc32/v1.42/bin/bin/../../lib/gcc/pic32mx/4.8.3/../../../../pic32mx/lib/./proc/32MX795F512L\default_isr_vectors.o (__vector_dispatch_45)
c:/program files (x86)/microchip/xc32/v1.42/bin/bin/../../lib/gcc/pic32mx/4.8.3/../../../../pic32mx/lib\libpic32.a(vector46.o)
                              c:/program files (x86)/microchip/xc32/v1.42/bin/bin/../../lib/gcc/pic32mx/4.8.3/../../../../pic32mx/lib/./proc/32MX795F512L\default_isr_vectors.o (__vector_dispatch_46)
c:/program files (x86)/microchip/xc32/v1.42/bin/bin/../../lib/gcc/pic32mx/4.8.3/../../../../pic32mx/lib\libpic32.a(vector47.o)
                              c:/program files (x86)/microchip/xc32/v1.42/bin/bin/../../lib/gcc/pic32mx/4.8.3/../../../../pic32mx/lib/./proc/32MX795F512L\default_isr_vectors.o (__vector_dispatch_47)
c:/program files (x86)/microchip/xc32/v1.42/bin/bin/../../lib/gcc/pic32mx/4.8.3/../../../../pic32mx/lib\libpic32.a(vector48.o)
                              c:/program files (x86)/microchip/xc32/v1.42/bin/bin/../../lib/gcc/pic32mx/4.8.3/../../../../pic32mx/lib/./proc/32MX795F512L\default_isr_vectors.o (__vector_dispatch_48)
c:/program files (x86)/microchip/xc32/v1.42/bin/bin/../../lib/gcc/pic32mx/4.8.3/../../../../pic32mx/lib\libpic32.a(vector49.o)
                              c:/program files (x86)/microchip/xc32/v1.42/bin/bin/../../lib/gcc/pic32mx/4.8.3/../../../../pic32mx/lib/./proc/32MX795F512L\default_isr_vectors.o (__vector_dispatch_49)
c:/program files (x86)/microchip/xc32/v1.42/bin/bin/../../lib/gcc/pic32mx/4.8.3/../../../../pic32mx/lib\libpic32.a(vector50.o)
                              c:/program files (x86)/microchip/xc32/v1.42/bin/bin/../../lib/gcc/pic32mx/4.8.3/../../../../pic32mx/lib/./proc/32MX795F512L\default_isr_vectors.o (__vector_dispatch_50)
c:/program files (x86)/microchip/xc32/v1.42/bin/bin/../../lib/gcc/pic32mx/4.8.3/../../../../pic32mx/lib\libpic32.a(vector51.o)
                              c:/program files (x86)/microchip/xc32/v1.42/bin/bin/../../lib/gcc/pic32mx/4.8.3/../../../../pic32mx/lib/./proc/32MX795F512L\default_isr_vectors.o (__vector_dispatch_51)
c:/program files (x86)/microchip/xc32/v1.42/bin/bin/../../lib/gcc/pic32mx/4.8.3/../../../../pic32mx/lib\libpic32.a(defaultinterrupt.o)
                              c:/program files (x86)/microchip/xc32/v1.42/bin/bin/../../lib/gcc/pic32mx/4.8.3/../../../../pic32mx/lib\libpic32.a(vector0.o) (_DefaultInterrupt)

Allocating common symbols
Common symbol       size              file

mainappData         0x4               build/default/production/_ext/1360937237/mainapp.o
uart_txData         0x8               build/default/production/_ext/1360937237/uart_tx.o
uart_rxData         0x8               build/default/production/_ext/1360937237/uart_rx.o
gDrvUSART0Obj       0x4               build/default/production/_ext/327000265/drv_usart_static.o
sysObj              0x8               build/default/production/_ext/1688732426/system_init.o
sysDevconObj        0x8               build/default/production/_ext/23466643/sys_devcon.o
motor_controlData   0x4               build/default/production/_ext/1360937237/motor_control.o
bufferQueue         0x4               build/default/production/_ext/1688732426/system_interrupt.o

Microchip PIC32 Memory-Usage Report

kseg0 Program-Memory Usage
section                    address  length [bytes]      (dec)  Description
-------                 ----------  -------------------------  -----------
.text                   0x9d000000          0x454        1108  App's exec code 
.text.xTaskGenericCreat 0x9d000454          0x2e0         736   
.text.xQueueGenericRece 0x9d000734          0x24c         588   
.text.xQueueGenericSend 0x9d000980          0x208         520   
.DrvAdc_vector_text     0x9d000b88          0x1b4         436   
.DrvUsartInstance0_vect 0x9d000d3c          0x1b4         436   
.text.xTaskIncrementTic 0x9d000ef0          0x19c         412   
.text.DRV_USART0_Initia 0x9d00108c          0x174         372   
.text                   0x9d001200          0x168         360  App's exec code 
.text.xTaskResumeAll    0x9d001368          0x154         340   
.text.vTaskPriorityInhe 0x9d0014bc          0x12c         300   
.rodata                 0x9d0015e8          0x128         296  Read-only const 
.text.DRV_ADC_Initializ 0x9d001710          0x120         288   
.text.prvUnlockQueue    0x9d001830          0x104         260   
.text.SYS_Tasks         0x9d001934          0x104         260   
.text.prvCopyDataToQueu 0x9d001a38           0xfc         252   
.text.IntHandlerDrvUsar 0x9d001b34           0xfc         252   
.text.xTaskPriorityDisi 0x9d001c30           0xf8         248   
.text.xQueueGenericSend 0x9d001d28           0xe8         232   
.text.vTaskSwitchContex 0x9d001e10           0xe0         224   
.text.SYS_DEVCON_Perfor 0x9d001ef0           0xdc         220   
.text.general_exception 0x9d001fcc           0xdc         220   
.text.xQueueReceiveFrom 0x9d0020a8           0xd4         212   
.text.xQueueGenericRese 0x9d00217c           0xc4         196   
.text.SYS_Initialize    0x9d002240           0xc0         192   
.text.xTaskRemoveFromEv 0x9d002300           0xbc         188   
.text.pvPortMalloc      0x9d0023bc           0xbc         188   
.text.prvIdleTask       0x9d002478           0xb4         180   
.text.sendMessageToBuff 0x9d00252c           0xa8         168   
.text                   0x9d0025d4           0xa8         168  App's exec code 
.text.xTaskCheckForTime 0x9d00267c           0xa0         160   
.text.MAINAPP_Tasks     0x9d00271c           0x9c         156   
.text.UART_RX_Tasks     0x9d0027b8           0x98         152   
.text.xQueueGenericCrea 0x9d002850           0x94         148   
.text.vTaskPlaceOnEvent 0x9d0028e4           0x94         148   
.text.vTaskStartSchedul 0x9d002978           0x84         132   
.text.filterAndSend     0x9d0029fc           0x84         132   
.text.xQueueCreateMutex 0x9d002a80           0x80         128   
.text.stringToMessage   0x9d002b00           0x80         128   
.text.prvAddCurrentTask 0x9d002b80           0x70         112   
.dinit                  0x9d002bf0           0x70         112   
.text.vApplicationSetup 0x9d002c60           0x6c         108   
.text.vTaskExitCritical 0x9d002ccc           0x68         104   
.text.vListInsert       0x9d002d34           0x5c          92   
.text.xPortStartSchedul 0x9d002d90           0x5c          92   
.text.SYS_DEVCON_System 0x9d002dec           0x58          88   
.text.SYS_CLK_Initializ 0x9d002e44           0x58          88   
.text.main_entry        0x9d002e9c           0x54          84   
.text.pxPortInitialiseS 0x9d002ef0           0x54          84   
.text.vPortIncrementTic 0x9d002f44           0x54          84   
.text.sendMessage       0x9d002f98           0x54          84   
.text.prvCopyDataFromQu 0x9d002fec           0x50          80   
.text.vTaskEnterCritica 0x9d00303c           0x50          80   
.rodata                 0x9d00308c           0x50          80  Read-only const 
.text.SYS_DEVCON_System 0x9d0030dc           0x48          72   
.text._bootstrap_except 0x9d003124           0x48          72   
.vector_default         0x9d00316c           0x48          72   
.text.uxListRemove      0x9d0031b4           0x44          68   
.text                   0x9d0031f8           0x44          68  App's exec code 
.text.SYS_PORTS_Initial 0x9d00323c           0x40          64   
.text._general_exceptio 0x9d00327c           0x40          64   
.text.OSAL_MUTEX_Create 0x9d0032bc           0x3c          60   
.text.uxPortSetInterrup 0x9d0032f8           0x3c          60   
.text.UART_TX_Tasks     0x9d003334           0x3c          60   
.text.sendToTXBufferQue 0x9d003370           0x3c          60   
.text.prvResetNextTaskU 0x9d0033ac           0x38          56   
.text.sendToMainAppQueu 0x9d0033e4           0x34          52   
.text.sendToTXQueue     0x9d003418           0x34          52   
.text.sendToRXQueueFrom 0x9d00344c           0x34          52   
.text.DRV_USART_Initial 0x9d003480           0x34          52   
.text.vListInsertEnd    0x9d0034b4           0x30          48   
.text.prvTaskExitError  0x9d0034e4           0x2c          44   
.text.UART_TX_Initializ 0x9d003510           0x2c          44   
.text.UART_RX_Initializ 0x9d00353c           0x2c          44   
.text.vApplicationStack 0x9d003568           0x2c          44   
.text.vApplicationMallo 0x9d003594           0x2c          44   
.text.pvTaskIncrementMu 0x9d0035c0           0x28          40   
.text.MAINAPP_Initializ 0x9d0035e8           0x28          40   
.text.MOTOR_CONTROL_Ini 0x9d003610           0x28          40   
.text.initializeBufferQ 0x9d003638           0x28          40   
.text.vListInitialise   0x9d003660           0x20          32   
.text.main              0x9d003680           0x20          32   
.text.SYS_DEVCON_JTAGDi 0x9d0036a0           0x1c          28   
.text.vPortClearInterru 0x9d0036bc           0x1c          28   
.text.SYS_INT_Initializ 0x9d0036d8           0x18          24   
.text.IntHandlerDrvAdc  0x9d0036f0           0x18          24   
.text._UART_RX_Tasks    0x9d003708           0x18          24   
.text._UART_TX_Tasks    0x9d003720           0x18          24   
.text._MOTOR_CONTROL_Ta 0x9d003738           0x18          24   
.text._MAINAPP_Tasks    0x9d003750           0x18          24   
.text._SYS_Tasks        0x9d003768           0x18          24   
.text                   0x9d003780           0x18          24  App's exec code 
.text.SYS_DEVCON_Initia 0x9d003798           0x14          20   
.text.vTaskSuspendAll   0x9d0037ac           0x14          20   
.text.vTaskSetTimeOutSt 0x9d0037c0           0x14          20   
.text.vTaskMissedYield  0x9d0037d4           0x10          16   
.text.SYS_CLK_SystemFre 0x9d0037e4            0xc          12   
.text.SYS_CLK_Periphera 0x9d0037f0            0xc          12   
.text.SYS_DEVCON_Tasks  0x9d0037fc            0x8           8   
.text.vListInitialiseIt 0x9d003804            0x8           8   
.rodata                 0x9d00380c            0x8           8  Read-only const 
.text.vPortFree         0x9d003814            0x8           8   
.text.MOTOR_CONTROL_Tas 0x9d00381c            0x8           8   
.text._on_reset         0x9d003824            0x8           8   
.text._on_bootstrap     0x9d00382c            0x8           8   
.rodata                 0x9d003834            0x8           8  Read-only const 
      Total kseg0_program_mem used  :      0x383c       14396  2.7% of 0x80000

kseg0 Boot-Memory Usage
section                    address  length [bytes]      (dec)  Description
-------                 ----------  -------------------------  -----------
         Total kseg0_boot_mem used  :           0           0  <1% of 0x970

Exception-Memory Usage 
section                    address  length [bytes]      (dec)  Description
-------                 ----------  -------------------------  -----------
.app_excpt              0x9fc01180           0x10          16  General-Exception 
.vector_0               0x9fc01200            0x8           8  Interrupt Vector 0 
.vector_1               0x9fc01220            0x8           8  Interrupt Vector 1 
.vector_2               0x9fc01240            0x8           8  Interrupt Vector 2 
.vector_3               0x9fc01260            0x8           8  Interrupt Vector 3 
.vector_4               0x9fc01280            0x8           8  Interrupt Vector 4 
.vector_5               0x9fc012a0            0x8           8  Interrupt Vector 5 
.vector_6               0x9fc012c0            0x8           8  Interrupt Vector 6 
.vector_7               0x9fc012e0            0x8           8  Interrupt Vector 7 
.vector_8               0x9fc01300            0x8           8  Interrupt Vector 8 
.vector_9               0x9fc01320            0x8           8  Interrupt Vector 9 
.vector_10              0x9fc01340            0x8           8  Interrupt Vector 10 
.vector_11              0x9fc01360            0x8           8  Interrupt Vector 11 
.vector_12              0x9fc01380            0x8           8  Interrupt Vector 12 
.vector_13              0x9fc013a0            0x8           8  Interrupt Vector 13 
.vector_14              0x9fc013c0            0x8           8  Interrupt Vector 14 
.vector_15              0x9fc013e0            0x8           8  Interrupt Vector 15 
.vector_16              0x9fc01400            0x8           8  Interrupt Vector 16 
.vector_17              0x9fc01420            0x8           8  Interrupt Vector 17 
.vector_18              0x9fc01440            0x8           8  Interrupt Vector 18 
.vector_19              0x9fc01460            0x8           8  Interrupt Vector 19 
.vector_20              0x9fc01480            0x8           8  Interrupt Vector 20 
.vector_21              0x9fc014a0            0x8           8  Interrupt Vector 21 
.vector_22              0x9fc014c0            0x8           8  Interrupt Vector 22 
.vector_23              0x9fc014e0            0x8           8  Interrupt Vector 23 
.vector_24              0x9fc01500           0x10          16  Interrupt Vector 24 
.vector_25              0x9fc01520            0x8           8  Interrupt Vector 25 
.vector_26              0x9fc01540            0x8           8  Interrupt Vector 26 
.vector_27              0x9fc01560           0x10          16  Interrupt Vector 27 
.vector_28              0x9fc01580            0x8           8  Interrupt Vector 28 
.vector_29              0x9fc015a0            0x8           8  Interrupt Vector 29 
.vector_30              0x9fc015c0            0x8           8  Interrupt Vector 30 
.vector_31              0x9fc015e0            0x8           8  Interrupt Vector 31 
.vector_32              0x9fc01600            0x8           8  Interrupt Vector 32 
.vector_33              0x9fc01620            0x8           8  Interrupt Vector 33 
.vector_34              0x9fc01640            0x8           8  Interrupt Vector 34 
.vector_35              0x9fc01660            0x8           8  Interrupt Vector 35 
.vector_36              0x9fc01680            0x8           8  Interrupt Vector 36 
.vector_37              0x9fc016a0            0x8           8  Interrupt Vector 37 
.vector_38              0x9fc016c0            0x8           8  Interrupt Vector 38 
.vector_39              0x9fc016e0            0x8           8  Interrupt Vector 39 
.vector_40              0x9fc01700            0x8           8  Interrupt Vector 40 
.vector_41              0x9fc01720            0x8           8  Interrupt Vector 41 
.vector_42              0x9fc01740            0x8           8  Interrupt Vector 42 
.vector_43              0x9fc01760            0x8           8  Interrupt Vector 43 
.vector_44              0x9fc01780            0x8           8  Interrupt Vector 44 
.vector_45              0x9fc017a0            0x8           8  Interrupt Vector 45 
.vector_46              0x9fc017c0            0x8           8  Interrupt Vector 46 
.vector_47              0x9fc017e0            0x8           8  Interrupt Vector 47 
.vector_48              0x9fc01800            0x8           8  Interrupt Vector 48 
.vector_49              0x9fc01820            0x8           8  Interrupt Vector 49 
.vector_50              0x9fc01840            0x8           8  Interrupt Vector 50 
.vector_51              0x9fc01860            0x8           8  Interrupt Vector 51 
          Total exception_mem used  :       0x1c0         448  10.9% of 0x1000

kseg1 Boot-Memory Usage
section                    address  length [bytes]      (dec)  Description
-------                 ----------  -------------------------  -----------
.reset                  0xbfc00000          0x208         520  Reset handler 
.bev_excpt              0xbfc00380           0x10          16  BEV-Exception 
         Total kseg1_boot_mem used  :       0x218         536  45.9% of 0x490
        --------------------------------------------------------------------------
         Total Program Memory used  :      0x3c14       15380  2.9% of 0x81e00
        --------------------------------------------------------------------------


kseg1 Data-Memory Usage
section                    address  length [bytes]      (dec)  Description
-------                 ----------  -------------------------  -----------
.sdata                  0xa0000000            0x4           4  Small init data 
.sbss                   0xa0000004           0x80         128  Small uninit data 
.bss                    0xa0000084         0xf708       63240  Uninitialized data 
         Total kseg1_data_mem used  :      0xf78c       63372  48.3% of 0x20000
        --------------------------------------------------------------------------
            Total Data Memory used  :      0xf78c       63372  48.3% of 0x20000
        --------------------------------------------------------------------------


Dynamic Data-Memory Reservation
section                    address  length [bytes]      (dec)  Description
-------                 ----------  -------------------------  -----------
heap                    0xa000f790              0           0  Reserved for heap 
stack                   0xa000f7a8        0x10848       67656  Reserved for stack 

        --------------------------------------------------------------------------

Discarded input sections

 .text          0x00000000        0x0 c:/program files (x86)/microchip/xc32/v1.42/bin/bin/../../lib/gcc/pic32mx/4.8.3/../../../../pic32mx/lib/./proc/32MX795F512L/crt0_mips32r2.o
 .data          0x00000000        0x0 c:/program files (x86)/microchip/xc32/v1.42/bin/bin/../../lib/gcc/pic32mx/4.8.3/../../../../pic32mx/lib/./proc/32MX795F512L/crt0_mips32r2.o
 .bss           0x00000000        0x0 c:/program files (x86)/microchip/xc32/v1.42/bin/bin/../../lib/gcc/pic32mx/4.8.3/../../../../pic32mx/lib/./proc/32MX795F512L/crt0_mips32r2.o
 .text          0x00000000        0x0 c:/program files (x86)/microchip/xc32/v1.42/bin/bin/../../lib/gcc/pic32mx/4.8.3/../../../../pic32mx/lib\debug-exception-return.o
 .data          0x00000000        0x0 c:/program files (x86)/microchip/xc32/v1.42/bin/bin/../../lib/gcc/pic32mx/4.8.3/../../../../pic32mx/lib\debug-exception-return.o
 .bss           0x00000000        0x0 c:/program files (x86)/microchip/xc32/v1.42/bin/bin/../../lib/gcc/pic32mx/4.8.3/../../../../pic32mx/lib\debug-exception-return.o
 .reginfo       0x00000000       0x18 c:/program files (x86)/microchip/xc32/v1.42/bin/bin/../../lib/gcc/pic32mx/4.8.3/../../../../pic32mx/lib\debug-exception-return.o
 .text          0x00000000        0x0 build/default/production/_ext/341040409/osal_freertos.o
 .data          0x00000000        0x0 build/default/production/_ext/341040409/osal_freertos.o
 .bss           0x00000000        0x0 build/default/production/_ext/341040409/osal_freertos.o
 .reginfo       0x00000000       0x18 build/default/production/_ext/341040409/osal_freertos.o
 .text.OSAL_CRIT_Enter
                0x00000000       0x48 build/default/production/_ext/341040409/osal_freertos.o
 .text.OSAL_CRIT_Leave
                0x00000000       0x44 build/default/production/_ext/341040409/osal_freertos.o
 .text.OSAL_SEM_Create
                0x00000000       0x94 build/default/production/_ext/341040409/osal_freertos.o
 .text.OSAL_SEM_Delete
                0x00000000       0x30 build/default/production/_ext/341040409/osal_freertos.o
 .text.OSAL_SEM_Pend
                0x00000000       0x44 build/default/production/_ext/341040409/osal_freertos.o
 .text.OSAL_SEM_Post
                0x00000000       0x30 build/default/production/_ext/341040409/osal_freertos.o
 .text.OSAL_SEM_PostISR
                0x00000000       0x4c build/default/production/_ext/341040409/osal_freertos.o
 .text.OSAL_SEM_GetCount
                0x00000000       0x2c build/default/production/_ext/341040409/osal_freertos.o
 .text.OSAL_MUTEX_Delete
                0x00000000       0x3c build/default/production/_ext/341040409/osal_freertos.o
 .text.OSAL_MUTEX_Lock
                0x00000000       0x44 build/default/production/_ext/341040409/osal_freertos.o
 .text.OSAL_MUTEX_Unlock
                0x00000000       0x30 build/default/production/_ext/341040409/osal_freertos.o
 .rodata        0x00000000        0xc build/default/production/_ext/341040409/osal_freertos.o
 .text.OSAL_Name
                0x00000000        0xc build/default/production/_ext/341040409/osal_freertos.o
 .text.OSAL_Initialize
                0x00000000        0x8 build/default/production/_ext/341040409/osal_freertos.o
 .text          0x00000000        0x0 build/default/production/_ext/23466643/sys_devcon.o
 .data          0x00000000        0x0 build/default/production/_ext/23466643/sys_devcon.o
 .bss           0x00000000        0x0 build/default/production/_ext/23466643/sys_devcon.o
 .reginfo       0x00000000       0x18 build/default/production/_ext/23466643/sys_devcon.o
 .text.SYS_DEVCON_Reinitialize
                0x00000000       0x10 build/default/production/_ext/23466643/sys_devcon.o
 .text.SYS_DEVCON_Deinitialize
                0x00000000        0x8 build/default/production/_ext/23466643/sys_devcon.o
 .text.SYS_DEVCON_Status
                0x00000000        0x8 build/default/production/_ext/23466643/sys_devcon.o
 .text.SYS_DEVCON_JTAGEnable
                0x00000000       0x18 build/default/production/_ext/23466643/sys_devcon.o
 .text.SYS_DEVCON_TraceEnable
                0x00000000       0x18 build/default/production/_ext/23466643/sys_devcon.o
 .text.SYS_DEVCON_TraceDisable
                0x00000000       0x1c build/default/production/_ext/23466643/sys_devcon.o
 .text.SYS_DEVCON_PowerModeEnter
                0x00000000       0x54 build/default/production/_ext/23466643/sys_devcon.o
 .text          0x00000000        0x0 build/default/production/_ext/23466643/sys_devcon_pic32mx.o
 .data          0x00000000        0x0 build/default/production/_ext/23466643/sys_devcon_pic32mx.o
 .bss           0x00000000        0x0 build/default/production/_ext/23466643/sys_devcon_pic32mx.o
 .reginfo       0x00000000       0x18 build/default/production/_ext/23466643/sys_devcon_pic32mx.o
 .text          0x00000000        0x0 build/default/production/_ext/1667967065/sys_int_pic32.o
 .data          0x00000000        0x0 build/default/production/_ext/1667967065/sys_int_pic32.o
 .bss           0x00000000        0x0 build/default/production/_ext/1667967065/sys_int_pic32.o
 .reginfo       0x00000000       0x18 build/default/production/_ext/1667967065/sys_int_pic32.o
 .text.SYS_INT_StatusGetAndDisable
                0x00000000       0x1c build/default/production/_ext/1667967065/sys_int_pic32.o
 .text.SYS_INT_StatusRestore
                0x00000000       0x1c build/default/production/_ext/1667967065/sys_int_pic32.o
 .text.SYS_INT_Disable
                0x00000000       0x20 build/default/production/_ext/1667967065/sys_int_pic32.o
 .text.SYS_INT_SourceDisable
                0x00000000       0x58 build/default/production/_ext/1667967065/sys_int_pic32.o
 .text.SYS_INT_ExternalInterruptTriggerSet
                0x00000000       0x34 build/default/production/_ext/1667967065/sys_int_pic32.o
 .text          0x00000000        0x0 build/default/production/_ext/357001740/croutine.o
 .data          0x00000000        0x0 build/default/production/_ext/357001740/croutine.o
 .bss           0x00000000        0x0 build/default/production/_ext/357001740/croutine.o
 .reginfo       0x00000000       0x18 build/default/production/_ext/357001740/croutine.o
 .text          0x00000000        0x0 build/default/production/_ext/357001740/list.o
 .data          0x00000000        0x0 build/default/production/_ext/357001740/list.o
 .bss           0x00000000        0x0 build/default/production/_ext/357001740/list.o
 .reginfo       0x00000000       0x18 build/default/production/_ext/357001740/list.o
 .text          0x00000000        0x0 build/default/production/_ext/357001740/queue.o
 .data          0x00000000        0x0 build/default/production/_ext/357001740/queue.o
 .bss           0x00000000        0x0 build/default/production/_ext/357001740/queue.o
 .reginfo       0x00000000       0x18 build/default/production/_ext/357001740/queue.o
 .text.xQueueCreateCountingSemaphore
                0x00000000       0x34 build/default/production/_ext/357001740/queue.o
 .text.xQueueGiveFromISR
                0x00000000       0xc4 build/default/production/_ext/357001740/queue.o
 .text.xQueuePeekFromISR
                0x00000000       0x74 build/default/production/_ext/357001740/queue.o
 .text.uxQueueMessagesWaiting
                0x00000000       0x34 build/default/production/_ext/357001740/queue.o
 .text.uxQueueSpacesAvailable
                0x00000000       0x38 build/default/production/_ext/357001740/queue.o
 .text.uxQueueMessagesWaitingFromISR
                0x00000000        0xc build/default/production/_ext/357001740/queue.o
 .text.vQueueDelete
                0x00000000       0x1c build/default/production/_ext/357001740/queue.o
 .text.xQueueIsQueueEmptyFromISR
                0x00000000        0xc build/default/production/_ext/357001740/queue.o
 .text.xQueueIsQueueFullFromISR
                0x00000000       0x14 build/default/production/_ext/357001740/queue.o
 .text          0x00000000        0x0 build/default/production/_ext/357001740/tasks.o
 .data          0x00000000        0x0 build/default/production/_ext/357001740/tasks.o
 .reginfo       0x00000000       0x18 build/default/production/_ext/357001740/tasks.o
 .text.prvTaskIsTaskSuspended
                0x00000000       0x38 build/default/production/_ext/357001740/tasks.o
 .text.uxTaskPriorityGetFromISR
                0x00000000       0x3c build/default/production/_ext/357001740/tasks.o
 .text.xTaskResumeFromISR
                0x00000000       0xdc build/default/production/_ext/357001740/tasks.o
 .text.vTaskEndScheduler
                0x00000000       0x3c build/default/production/_ext/357001740/tasks.o
 .text.xTaskGetTickCount
                0x00000000        0xc build/default/production/_ext/357001740/tasks.o
 .text.xTaskGetTickCountFromISR
                0x00000000        0xc build/default/production/_ext/357001740/tasks.o
 .text.uxTaskGetNumberOfTasks
                0x00000000        0xc build/default/production/_ext/357001740/tasks.o
 .text.vTaskPlaceOnUnorderedEventList
                0x00000000       0xa4 build/default/production/_ext/357001740/tasks.o
 .text.xTaskRemoveFromUnorderedEventList
                0x00000000       0x9c build/default/production/_ext/357001740/tasks.o
 .text.xTaskGetCurrentTaskHandle
                0x00000000        0xc build/default/production/_ext/357001740/tasks.o
 .text.vTaskDelete
                0x00000000      0x110 build/default/production/_ext/357001740/tasks.o
 .text.uxTaskPriorityGet
                0x00000000       0x38 build/default/production/_ext/357001740/tasks.o
 .text.vTaskPrioritySet
                0x00000000      0x15c build/default/production/_ext/357001740/tasks.o
 .text.vTaskSuspend
                0x00000000      0x138 build/default/production/_ext/357001740/tasks.o
 .text.vTaskResume
                0x00000000       0xc4 build/default/production/_ext/357001740/tasks.o
 .text.vTaskDelayUntil
                0x00000000       0xd8 build/default/production/_ext/357001740/tasks.o
 .text.vTaskDelay
                0x00000000       0x90 build/default/production/_ext/357001740/tasks.o
 .text.uxTaskResetEventItemValue
                0x00000000       0x24 build/default/production/_ext/357001740/tasks.o
 .text.ulTaskNotifyTake
                0x00000000      0x128 build/default/production/_ext/357001740/tasks.o
 .text.xTaskNotifyWait
                0x00000000      0x160 build/default/production/_ext/357001740/tasks.o
 .text.xTaskGenericNotify
                0x00000000      0x168 build/default/production/_ext/357001740/tasks.o
 .text.xTaskGenericNotifyFromISR
                0x00000000      0x198 build/default/production/_ext/357001740/tasks.o
 .text.vTaskNotifyGiveFromISR
                0x00000000       0xf8 build/default/production/_ext/357001740/tasks.o
 .text.xTaskNotifyStateClear
                0x00000000       0x5c build/default/production/_ext/357001740/tasks.o
 .text          0x00000000        0x0 build/default/production/_ext/357001740/timers.o
 .data          0x00000000        0x0 build/default/production/_ext/357001740/timers.o
 .bss           0x00000000        0x0 build/default/production/_ext/357001740/timers.o
 .reginfo       0x00000000       0x18 build/default/production/_ext/357001740/timers.o
 .text          0x00000000        0x0 build/default/production/_ext/357001740/event_groups.o
 .data          0x00000000        0x0 build/default/production/_ext/357001740/event_groups.o
 .bss           0x00000000        0x0 build/default/production/_ext/357001740/event_groups.o
 .reginfo       0x00000000       0x18 build/default/production/_ext/357001740/event_groups.o
 .text.xEventGroupCreate
                0x00000000       0x3c build/default/production/_ext/357001740/event_groups.o
 .text.xEventGroupWaitBits
                0x00000000      0x148 build/default/production/_ext/357001740/event_groups.o
 .text.xEventGroupClearBits
                0x00000000       0x50 build/default/production/_ext/357001740/event_groups.o
 .text.xEventGroupGetBitsFromISR
                0x00000000       0x34 build/default/production/_ext/357001740/event_groups.o
 .text.xEventGroupSetBits
                0x00000000       0xfc build/default/production/_ext/357001740/event_groups.o
 .text.xEventGroupSync
                0x00000000      0x110 build/default/production/_ext/357001740/event_groups.o
 .text.vEventGroupDelete
                0x00000000       0x58 build/default/production/_ext/357001740/event_groups.o
 .text.vEventGroupSetBitsCallback
                0x00000000       0x1c build/default/production/_ext/357001740/event_groups.o
 .text.vEventGroupClearBitsCallback
                0x00000000       0x1c build/default/production/_ext/357001740/event_groups.o
 .text          0x00000000        0x0 build/default/production/_ext/1663225769/heap_1.o
 .data          0x00000000        0x0 build/default/production/_ext/1663225769/heap_1.o
 .reginfo       0x00000000       0x18 build/default/production/_ext/1663225769/heap_1.o
 .text.vPortInitialiseBlocks
                0x00000000        0x8 build/default/production/_ext/1663225769/heap_1.o
 .text.xPortGetFreeHeapSize
                0x00000000       0x10 build/default/production/_ext/1663225769/heap_1.o
 .text          0x00000000        0x0 build/default/production/_ext/201381206/port.o
 .data          0x00000000        0x0 build/default/production/_ext/201381206/port.o
 .reginfo       0x00000000       0x18 build/default/production/_ext/201381206/port.o
 .text.vPortEndScheduler
                0x00000000        0x8 build/default/production/_ext/201381206/port.o
 .data          0x00000000        0x0 build/default/production/_ext/201381206/port_asm.o
 .bss           0x00000000        0x0 build/default/production/_ext/201381206/port_asm.o
 .reginfo       0x00000000       0x18 build/default/production/_ext/201381206/port_asm.o
 .text          0x00000000        0x0 build/default/production/_ext/1360937237/mainapp.o
 .data          0x00000000        0x0 build/default/production/_ext/1360937237/mainapp.o
 .bss           0x00000000        0x0 build/default/production/_ext/1360937237/mainapp.o
 .reginfo       0x00000000       0x18 build/default/production/_ext/1360937237/mainapp.o
 .text.sendToMainAppQueueFromISR
                0x00000000       0x34 build/default/production/_ext/1360937237/mainapp.o
 .text          0x00000000        0x0 build/default/production/_ext/1360937237/motor_control.o
 .data          0x00000000        0x0 build/default/production/_ext/1360937237/motor_control.o
 .bss           0x00000000        0x0 build/default/production/_ext/1360937237/motor_control.o
 .reginfo       0x00000000       0x18 build/default/production/_ext/1360937237/motor_control.o
 .text.sendToMotorControlQueue
                0x00000000       0x34 build/default/production/_ext/1360937237/motor_control.o
 .text.sendToMotorControlQueueFromISR
                0x00000000       0x34 build/default/production/_ext/1360937237/motor_control.o
 .text          0x00000000        0x0 build/default/production/_ext/1360937237/uart_tx.o
 .data          0x00000000        0x0 build/default/production/_ext/1360937237/uart_tx.o
 .bss           0x00000000        0x0 build/default/production/_ext/1360937237/uart_tx.o
 .reginfo       0x00000000       0x18 build/default/production/_ext/1360937237/uart_tx.o
 .text.sendToTXQueueFromISR
                0x00000000       0x34 build/default/production/_ext/1360937237/uart_tx.o
 .text          0x00000000        0x0 build/default/production/_ext/1360937237/uart_rx.o
 .data          0x00000000        0x0 build/default/production/_ext/1360937237/uart_rx.o
 .bss           0x00000000        0x0 build/default/production/_ext/1360937237/uart_rx.o
 .reginfo       0x00000000       0x18 build/default/production/_ext/1360937237/uart_rx.o
 .text.sendToRXQueue
                0x00000000       0x34 build/default/production/_ext/1360937237/uart_rx.o
 .text          0x00000000        0x0 build/default/production/_ext/1361460060/drv_adc_static.o
 .data          0x00000000        0x0 build/default/production/_ext/1361460060/drv_adc_static.o
 .bss           0x00000000        0x0 build/default/production/_ext/1361460060/drv_adc_static.o
 .reginfo       0x00000000       0x18 build/default/production/_ext/1361460060/drv_adc_static.o
 .text.DRV_ADC_DeInitialize
                0x00000000       0x18 build/default/production/_ext/1361460060/drv_adc_static.o
 .text.DRV_ADC_Open
                0x00000000       0x18 build/default/production/_ext/1361460060/drv_adc_static.o
 .text.DRV_ADC_Close
                0x00000000       0x18 build/default/production/_ext/1361460060/drv_adc_static.o
 .text.DRV_ADC_Start
                0x00000000       0x18 build/default/production/_ext/1361460060/drv_adc_static.o
 .text.DRV_ADC_Stop
                0x00000000       0x18 build/default/production/_ext/1361460060/drv_adc_static.o
 .text.DRV_ADC_NegativeInputSelect
                0x00000000       0x50 build/default/production/_ext/1361460060/drv_adc_static.o
 .text.DRV_ADC_PositiveInputSelect
                0x00000000       0x64 build/default/production/_ext/1361460060/drv_adc_static.o
 .text.DRV_ADC_ChannelScanInputsAdd
                0x00000000       0x14 build/default/production/_ext/1361460060/drv_adc_static.o
 .text.DRV_ADC_ChannelScanInputsRemove
                0x00000000       0x14 build/default/production/_ext/1361460060/drv_adc_static.o
 .text.DRV_ADC_SamplesRead
                0x00000000       0x20 build/default/production/_ext/1361460060/drv_adc_static.o
 .text.DRV_ADC_SamplesAvailable
                0x00000000       0x10 build/default/production/_ext/1361460060/drv_adc_static.o
 .text          0x00000000        0x0 build/default/production/_ext/327000265/drv_usart_mapping.o
 .data          0x00000000        0x0 build/default/production/_ext/327000265/drv_usart_mapping.o
 .bss           0x00000000        0x0 build/default/production/_ext/327000265/drv_usart_mapping.o
 .reginfo       0x00000000       0x18 build/default/production/_ext/327000265/drv_usart_mapping.o
 .text.DRV_USART_Deinitialize
                0x00000000       0x28 build/default/production/_ext/327000265/drv_usart_mapping.o
 .text.DRV_USART_Status
                0x00000000       0x30 build/default/production/_ext/327000265/drv_usart_mapping.o
 .text.DRV_USART_TasksTransmit
                0x00000000       0x28 build/default/production/_ext/327000265/drv_usart_mapping.o
 .text.DRV_USART_TasksReceive
                0x00000000       0x28 build/default/production/_ext/327000265/drv_usart_mapping.o
 .text.DRV_USART_TasksError
                0x00000000       0x28 build/default/production/_ext/327000265/drv_usart_mapping.o
 .text.DRV_USART_Open
                0x00000000       0x34 build/default/production/_ext/327000265/drv_usart_mapping.o
 .text.DRV_USART_Close
                0x00000000       0x2c build/default/production/_ext/327000265/drv_usart_mapping.o
 .text.DRV_USART_ClientStatus
                0x00000000       0x34 build/default/production/_ext/327000265/drv_usart_mapping.o
 .text.DRV_USART_TransferStatus
                0x00000000       0x34 build/default/production/_ext/327000265/drv_usart_mapping.o
 .text.DRV_USART_ReadByte
                0x00000000       0x34 build/default/production/_ext/327000265/drv_usart_mapping.o
 .text.DRV_USART_WriteByte
                0x00000000       0x2c build/default/production/_ext/327000265/drv_usart_mapping.o
 .text.DRV_USART_ReceiverBufferSizeGet
                0x00000000       0x34 build/default/production/_ext/327000265/drv_usart_mapping.o
 .text.DRV_USART_TransmitBufferSizeGet
                0x00000000       0x34 build/default/production/_ext/327000265/drv_usart_mapping.o
 .text.DRV_USART_ReceiverBufferIsEmpty
                0x00000000       0x34 build/default/production/_ext/327000265/drv_usart_mapping.o
 .text.DRV_USART_TransmitBufferIsFull
                0x00000000       0x34 build/default/production/_ext/327000265/drv_usart_mapping.o
 .text.DRV_USART_BaudSet
                0x00000000       0x34 build/default/production/_ext/327000265/drv_usart_mapping.o
 .text.DRV_USART_LineControlSet
                0x00000000       0x34 build/default/production/_ext/327000265/drv_usart_mapping.o
 .text          0x00000000        0x0 build/default/production/_ext/327000265/drv_usart_static.o
 .data          0x00000000        0x0 build/default/production/_ext/327000265/drv_usart_static.o
 .bss           0x00000000        0x0 build/default/production/_ext/327000265/drv_usart_static.o
 .reginfo       0x00000000       0x18 build/default/production/_ext/327000265/drv_usart_static.o
 .text.DRV_USART0_Deinitialize
                0x00000000       0x50 build/default/production/_ext/327000265/drv_usart_static.o
 .text.DRV_USART0_Status
                0x00000000        0x8 build/default/production/_ext/327000265/drv_usart_static.o
 .text.DRV_USART0_TasksTransmit
                0x00000000       0x44 build/default/production/_ext/327000265/drv_usart_static.o
 .text.DRV_USART0_TasksReceive
                0x00000000       0x28 build/default/production/_ext/327000265/drv_usart_static.o
 .text.DRV_USART0_TasksError
                0x00000000       0x4c build/default/production/_ext/327000265/drv_usart_static.o
 .text.DRV_USART0_Open
                0x00000000        0x8 build/default/production/_ext/327000265/drv_usart_static.o
 .text.DRV_USART0_Close
                0x00000000        0x8 build/default/production/_ext/327000265/drv_usart_static.o
 .text.DRV_USART0_ClientStatus
                0x00000000        0x8 build/default/production/_ext/327000265/drv_usart_static.o
 .text.DRV_USART0_TransferStatus
                0x00000000       0x48 build/default/production/_ext/327000265/drv_usart_static.o
 .text.DRV_USART0_BaudSet
                0x00000000       0xdc build/default/production/_ext/327000265/drv_usart_static.o
 .text.DRV_USART0_LineControlSet
                0x00000000       0x8c build/default/production/_ext/327000265/drv_usart_static.o
 .text          0x00000000        0x0 build/default/production/_ext/327000265/drv_usart_static_byte_model.o
 .data          0x00000000        0x0 build/default/production/_ext/327000265/drv_usart_static_byte_model.o
 .bss           0x00000000        0x0 build/default/production/_ext/327000265/drv_usart_static_byte_model.o
 .reginfo       0x00000000       0x18 build/default/production/_ext/327000265/drv_usart_static_byte_model.o
 .text.DRV_USART0_ReadByte
                0x00000000       0x50 build/default/production/_ext/327000265/drv_usart_static_byte_model.o
 .text.DRV_USART0_WriteByte
                0x00000000       0x64 build/default/production/_ext/327000265/drv_usart_static_byte_model.o
 .text.DRV_USART0_ReceiverBufferSizeGet
                0x00000000        0x8 build/default/production/_ext/327000265/drv_usart_static_byte_model.o
 .text.DRV_USART0_TransmitBufferSizeGet
                0x00000000        0x8 build/default/production/_ext/327000265/drv_usart_static_byte_model.o
 .text.DRV_USART0_ReceiverBufferIsEmpty
                0x00000000       0x14 build/default/production/_ext/327000265/drv_usart_static_byte_model.o
 .text.DRV_USART0_TransmitBufferIsFull
                0x00000000       0x10 build/default/production/_ext/327000265/drv_usart_static_byte_model.o
 .text          0x00000000        0x0 build/default/production/_ext/639803181/sys_clk_static.o
 .data          0x00000000        0x0 build/default/production/_ext/639803181/sys_clk_static.o
 .bss           0x00000000        0x0 build/default/production/_ext/639803181/sys_clk_static.o
 .reginfo       0x00000000       0x18 build/default/production/_ext/639803181/sys_clk_static.o
 .text.SYS_CLK_ReferenceClockFrequencyGet
                0x00000000        0x8 build/default/production/_ext/639803181/sys_clk_static.o
 .text.SYS_CLK_SecondaryOscillatorEnable
                0x00000000       0x4c build/default/production/_ext/639803181/sys_clk_static.o
 .text.SYS_CLK_SecondaryOscillatorDisable
                0x00000000       0x4c build/default/production/_ext/639803181/sys_clk_static.o
 .text.SYS_CLK_SecondaryOscillatorIsEnabled
                0x00000000       0x10 build/default/production/_ext/639803181/sys_clk_static.o
 .text          0x00000000        0x0 build/default/production/_ext/822048611/sys_ports_static.o
 .data          0x00000000        0x0 build/default/production/_ext/822048611/sys_ports_static.o
 .bss           0x00000000        0x0 build/default/production/_ext/822048611/sys_ports_static.o
 .reginfo       0x00000000       0x18 build/default/production/_ext/822048611/sys_ports_static.o
 .text.SYS_PORTS_Read
                0x00000000       0x38 build/default/production/_ext/822048611/sys_ports_static.o
 .text.SYS_PORTS_Write
                0x00000000       0x2c build/default/production/_ext/822048611/sys_ports_static.o
 .text.SYS_PORTS_Set
                0x00000000       0x38 build/default/production/_ext/822048611/sys_ports_static.o
 .text.SYS_PORTS_Clear
                0x00000000       0x34 build/default/production/_ext/822048611/sys_ports_static.o
 .text.SYS_PORTS_DirectionSelect
                0x00000000       0x6c build/default/production/_ext/822048611/sys_ports_static.o
 .text.SYS_PORTS_DirectionGet
                0x00000000       0x38 build/default/production/_ext/822048611/sys_ports_static.o
 .text.SYS_PORTS_Toggle
                0x00000000       0x34 build/default/production/_ext/822048611/sys_ports_static.o
 .text.SYS_PORTS_OpenDrainEnable
                0x00000000       0x34 build/default/production/_ext/822048611/sys_ports_static.o
 .text.SYS_PORTS_OpenDrainDisable
                0x00000000       0x34 build/default/production/_ext/822048611/sys_ports_static.o
 .text.SYS_PORTS_ChangeNotificationGlobalEnable
                0x00000000       0x1c build/default/production/_ext/822048611/sys_ports_static.o
 .text.SYS_PORTS_ChangeNotificationGlobalDisable
                0x00000000       0x1c build/default/production/_ext/822048611/sys_ports_static.o
 .text.SYS_PORTS_GlobalChangeNotificationDisable
                0x00000000       0x1c build/default/production/_ext/822048611/sys_ports_static.o
 .text.SYS_PORTS_ChangeNotificationEnable
                0x00000000       0x78 build/default/production/_ext/822048611/sys_ports_static.o
 .text.SYS_PORTS_ChangeNotificationDisable
                0x00000000       0x20 build/default/production/_ext/822048611/sys_ports_static.o
 .text.SYS_PORTS_ChangeNotificationInIdleModeEnable
                0x00000000       0x1c build/default/production/_ext/822048611/sys_ports_static.o
 .text.SYS_PORTS_ChangeNotificationInIdleModeDisable
                0x00000000       0x1c build/default/production/_ext/822048611/sys_ports_static.o
 .text.SYS_PORTS_ChangeNotificationPullUpEnable
                0x00000000       0x20 build/default/production/_ext/822048611/sys_ports_static.o
 .text.SYS_PORTS_ChangeNotificationPullUpDisable
                0x00000000       0x20 build/default/production/_ext/822048611/sys_ports_static.o
 .text.SYS_PORTS_PinModeSelect
                0x00000000       0x38 build/default/production/_ext/822048611/sys_ports_static.o
 .text.SYS_PORTS_PinWrite
                0x00000000       0x70 build/default/production/_ext/822048611/sys_ports_static.o
 .text.SYS_PORTS_PinRead
                0x00000000       0x44 build/default/production/_ext/822048611/sys_ports_static.o
 .text.SYS_PORTS_PinToggle
                0x00000000       0x38 build/default/production/_ext/822048611/sys_ports_static.o
 .text.SYS_PORTS_PinSet
                0x00000000       0x38 build/default/production/_ext/822048611/sys_ports_static.o
 .text.SYS_PORTS_PinClear
                0x00000000       0x38 build/default/production/_ext/822048611/sys_ports_static.o
 .text.SYS_PORTS_PinDirectionSelect
                0x00000000       0x78 build/default/production/_ext/822048611/sys_ports_static.o
 .text.SYS_PORTS_PinOpenDrainEnable
                0x00000000       0x38 build/default/production/_ext/822048611/sys_ports_static.o
 .text.SYS_PORTS_PinOpenDrainDisable
                0x00000000       0x38 build/default/production/_ext/822048611/sys_ports_static.o
 .text.SYS_PORTS_RemapInput
                0x00000000        0x8 build/default/production/_ext/822048611/sys_ports_static.o
 .text.SYS_PORTS_RemapOutput
                0x00000000        0x8 build/default/production/_ext/822048611/sys_ports_static.o
 .text          0x00000000        0x0 build/default/production/_ext/1688732426/system_init.o
 .data          0x00000000        0x0 build/default/production/_ext/1688732426/system_init.o
 .bss           0x00000000        0x0 build/default/production/_ext/1688732426/system_init.o
 .reginfo       0x00000000       0x18 build/default/production/_ext/1688732426/system_init.o
 .text          0x00000000        0x0 build/default/production/_ext/1688732426/system_interrupt.o
 .data          0x00000000        0x0 build/default/production/_ext/1688732426/system_interrupt.o
 .bss           0x00000000        0x0 build/default/production/_ext/1688732426/system_interrupt.o
 .reginfo       0x00000000       0x18 build/default/production/_ext/1688732426/system_interrupt.o
 .text.sendToTXBufferQueueFromISR
                0x00000000       0x3c build/default/production/_ext/1688732426/system_interrupt.o
 .text          0x00000000        0x0 build/default/production/_ext/1688732426/system_exceptions.o
 .data          0x00000000        0x0 build/default/production/_ext/1688732426/system_exceptions.o
 .bss           0x00000000        0x0 build/default/production/_ext/1688732426/system_exceptions.o
 .reginfo       0x00000000       0x18 build/default/production/_ext/1688732426/system_exceptions.o
 .text          0x00000000        0x0 build/default/production/_ext/1360937237/main.o
 .data          0x00000000        0x0 build/default/production/_ext/1360937237/main.o
 .bss           0x00000000        0x0 build/default/production/_ext/1360937237/main.o
 .reginfo       0x00000000       0x18 build/default/production/_ext/1360937237/main.o
 .text          0x00000000        0x0 build/default/production/_ext/1688732426/system_tasks.o
 .data          0x00000000        0x0 build/default/production/_ext/1688732426/system_tasks.o
 .bss           0x00000000        0x0 build/default/production/_ext/1688732426/system_tasks.o
 .reginfo       0x00000000       0x18 build/default/production/_ext/1688732426/system_tasks.o
 .text          0x00000000        0x0 build/default/production/_ext/1688732426/system_interrupt_a.o
 .data          0x00000000        0x0 build/default/production/_ext/1688732426/system_interrupt_a.o
 .bss           0x00000000        0x0 build/default/production/_ext/1688732426/system_interrupt_a.o
 .reginfo       0x00000000       0x18 build/default/production/_ext/1688732426/system_interrupt_a.o
 .text          0x00000000        0x0 build/default/production/_ext/1688732426/rtos_hooks.o
 .data          0x00000000        0x0 build/default/production/_ext/1688732426/rtos_hooks.o
 .bss           0x00000000        0x0 build/default/production/_ext/1688732426/rtos_hooks.o
 .reginfo       0x00000000       0x18 build/default/production/_ext/1688732426/rtos_hooks.o
 .text          0x00000000        0x0 c:/program files (x86)/microchip/xc32/v1.42/bin/bin/../../lib/gcc/pic32mx/4.8.3/../../../../pic32mx/lib/./proc/32MX795F512L\default_isr_vectors.o
 .data          0x00000000        0x0 c:/program files (x86)/microchip/xc32/v1.42/bin/bin/../../lib/gcc/pic32mx/4.8.3/../../../../pic32mx/lib/./proc/32MX795F512L\default_isr_vectors.o
 .bss           0x00000000        0x0 c:/program files (x86)/microchip/xc32/v1.42/bin/bin/../../lib/gcc/pic32mx/4.8.3/../../../../pic32mx/lib/./proc/32MX795F512L\default_isr_vectors.o
 .reginfo       0x00000000       0x18 c:/program files (x86)/microchip/xc32/v1.42/bin/bin/../../lib/gcc/pic32mx/4.8.3/../../../../pic32mx/lib/./proc/32MX795F512L\default_isr_vectors.o
 .discard       0x00000000       0xd0 c:/program files (x86)/microchip/xc32/v1.42/bin/bin/../../lib/gcc/pic32mx/4.8.3/../../../../pic32mx/lib/./proc/32MX795F512L\default_isr_vectors.o
 .data          0x00000000        0x0 c:/program files (x86)/microchip/xc32/v1.42/bin/bin/../../lib/gcc/pic32mx/4.8.3/../../../../pic32mx/lib\pic32_software_reset.o
 .bss           0x00000000        0x0 c:/program files (x86)/microchip/xc32/v1.42/bin/bin/../../lib/gcc/pic32mx/4.8.3/../../../../pic32mx/lib\pic32_software_reset.o
 .reginfo       0x00000000       0x18 c:/program files (x86)/microchip/xc32/v1.42/bin/bin/../../lib/gcc/pic32mx/4.8.3/../../../../pic32mx/lib\pic32_software_reset.o
 .text          0x00000000        0x0 c:/program files (x86)/microchip/xc32/v1.42/bin/bin/../../lib/gcc/pic32mx/4.8.3/../../../../pic32mx/lib/./proc/32MX795F512L\processor.o
 .data          0x00000000        0x0 c:/program files (x86)/microchip/xc32/v1.42/bin/bin/../../lib/gcc/pic32mx/4.8.3/../../../../pic32mx/lib/./proc/32MX795F512L\processor.o
 .bss           0x00000000        0x0 c:/program files (x86)/microchip/xc32/v1.42/bin/bin/../../lib/gcc/pic32mx/4.8.3/../../../../pic32mx/lib/./proc/32MX795F512L\processor.o
 .reginfo       0x00000000       0x18 c:/program files (x86)/microchip/xc32/v1.42/bin/bin/../../lib/gcc/pic32mx/4.8.3/../../../../pic32mx/lib/./proc/32MX795F512L\processor.o
 .data          0x00000000        0x0 c:/program files (x86)/microchip/xc32/v1.42/bin/bin/../../lib/gcc/pic32mx/4.8.3/../../../../pic32mx/lib\libpic32.a(memcpy.o)
 .bss           0x00000000        0x0 c:/program files (x86)/microchip/xc32/v1.42/bin/bin/../../lib/gcc/pic32mx/4.8.3/../../../../pic32mx/lib\libpic32.a(memcpy.o)
 .reginfo       0x00000000       0x18 c:/program files (x86)/microchip/xc32/v1.42/bin/bin/../../lib/gcc/pic32mx/4.8.3/../../../../pic32mx/lib\libpic32.a(memcpy.o)
 .data          0x00000000        0x0 c:/program files (x86)/microchip/xc32/v1.42/bin/bin/../../lib/gcc/pic32mx/4.8.3/../../../../pic32mx/lib\libpic32.a(memset.o)
 .bss           0x00000000        0x0 c:/program files (x86)/microchip/xc32/v1.42/bin/bin/../../lib/gcc/pic32mx/4.8.3/../../../../pic32mx/lib\libpic32.a(memset.o)
 .reginfo       0x00000000       0x18 c:/program files (x86)/microchip/xc32/v1.42/bin/bin/../../lib/gcc/pic32mx/4.8.3/../../../../pic32mx/lib\libpic32.a(memset.o)
 .text          0x00000000        0x0 c:/program files (x86)/microchip/xc32/v1.42/bin/bin/../../lib/gcc/pic32mx/4.8.3/../../../../pic32mx/lib\libpic32.a(default-bootstrap-exception-handler.o)
 .data          0x00000000        0x0 c:/program files (x86)/microchip/xc32/v1.42/bin/bin/../../lib/gcc/pic32mx/4.8.3/../../../../pic32mx/lib\libpic32.a(default-bootstrap-exception-handler.o)
 .bss           0x00000000        0x0 c:/program files (x86)/microchip/xc32/v1.42/bin/bin/../../lib/gcc/pic32mx/4.8.3/../../../../pic32mx/lib\libpic32.a(default-bootstrap-exception-handler.o)
 .reginfo       0x00000000       0x18 c:/program files (x86)/microchip/xc32/v1.42/bin/bin/../../lib/gcc/pic32mx/4.8.3/../../../../pic32mx/lib\libpic32.a(default-bootstrap-exception-handler.o)
 .text          0x00000000        0x0 c:/program files (x86)/microchip/xc32/v1.42/bin/bin/../../lib/gcc/pic32mx/4.8.3/../../../../pic32mx/lib\libpic32.a(default-on-reset.o)
 .data          0x00000000        0x0 c:/program files (x86)/microchip/xc32/v1.42/bin/bin/../../lib/gcc/pic32mx/4.8.3/../../../../pic32mx/lib\libpic32.a(default-on-reset.o)
 .bss           0x00000000        0x0 c:/program files (x86)/microchip/xc32/v1.42/bin/bin/../../lib/gcc/pic32mx/4.8.3/../../../../pic32mx/lib\libpic32.a(default-on-reset.o)
 .reginfo       0x00000000       0x18 c:/program files (x86)/microchip/xc32/v1.42/bin/bin/../../lib/gcc/pic32mx/4.8.3/../../../../pic32mx/lib\libpic32.a(default-on-reset.o)
 .text          0x00000000        0x0 c:/program files (x86)/microchip/xc32/v1.42/bin/bin/../../lib/gcc/pic32mx/4.8.3/../../../../pic32mx/lib\libpic32.a(default-on-bootstrap.o)
 .data          0x00000000        0x0 c:/program files (x86)/microchip/xc32/v1.42/bin/bin/../../lib/gcc/pic32mx/4.8.3/../../../../pic32mx/lib\libpic32.a(default-on-bootstrap.o)
 .bss           0x00000000        0x0 c:/program files (x86)/microchip/xc32/v1.42/bin/bin/../../lib/gcc/pic32mx/4.8.3/../../../../pic32mx/lib\libpic32.a(default-on-bootstrap.o)
 .reginfo       0x00000000       0x18 c:/program files (x86)/microchip/xc32/v1.42/bin/bin/../../lib/gcc/pic32mx/4.8.3/../../../../pic32mx/lib\libpic32.a(default-on-bootstrap.o)
 .data          0x00000000        0x0 c:/program files (x86)/microchip/xc32/v1.42/bin/bin/../../lib/gcc/pic32mx/4.8.3/../../../../pic32mx/lib\libpic32.a(default-nmi-handler.o)
 .bss           0x00000000        0x0 c:/program files (x86)/microchip/xc32/v1.42/bin/bin/../../lib/gcc/pic32mx/4.8.3/../../../../pic32mx/lib\libpic32.a(default-nmi-handler.o)
 .reginfo       0x00000000       0x18 c:/program files (x86)/microchip/xc32/v1.42/bin/bin/../../lib/gcc/pic32mx/4.8.3/../../../../pic32mx/lib\libpic32.a(default-nmi-handler.o)
 .text          0x00000000        0x0 c:/program files (x86)/microchip/xc32/v1.42/bin/bin/../../lib/gcc/pic32mx/4.8.3/../../../../pic32mx/lib\libpic32.a(general-exception.o)
 .data          0x00000000        0x0 c:/program files (x86)/microchip/xc32/v1.42/bin/bin/../../lib/gcc/pic32mx/4.8.3/../../../../pic32mx/lib\libpic32.a(general-exception.o)
 .bss           0x00000000        0x0 c:/program files (x86)/microchip/xc32/v1.42/bin/bin/../../lib/gcc/pic32mx/4.8.3/../../../../pic32mx/lib\libpic32.a(general-exception.o)
 .reginfo       0x00000000       0x18 c:/program files (x86)/microchip/xc32/v1.42/bin/bin/../../lib/gcc/pic32mx/4.8.3/../../../../pic32mx/lib\libpic32.a(general-exception.o)
 .text          0x00000000        0x0 c:/program files (x86)/microchip/xc32/v1.42/bin/bin/../../lib/gcc/pic32mx/4.8.3/../../../../pic32mx/lib\libpic32.a(vector0.o)
 .data          0x00000000        0x0 c:/program files (x86)/microchip/xc32/v1.42/bin/bin/../../lib/gcc/pic32mx/4.8.3/../../../../pic32mx/lib\libpic32.a(vector0.o)
 .bss           0x00000000        0x0 c:/program files (x86)/microchip/xc32/v1.42/bin/bin/../../lib/gcc/pic32mx/4.8.3/../../../../pic32mx/lib\libpic32.a(vector0.o)
 .reginfo       0x00000000       0x18 c:/program files (x86)/microchip/xc32/v1.42/bin/bin/../../lib/gcc/pic32mx/4.8.3/../../../../pic32mx/lib\libpic32.a(vector0.o)
 .text          0x00000000        0x0 c:/program files (x86)/microchip/xc32/v1.42/bin/bin/../../lib/gcc/pic32mx/4.8.3/../../../../pic32mx/lib\libpic32.a(vector2.o)
 .data          0x00000000        0x0 c:/program files (x86)/microchip/xc32/v1.42/bin/bin/../../lib/gcc/pic32mx/4.8.3/../../../../pic32mx/lib\libpic32.a(vector2.o)
 .bss           0x00000000        0x0 c:/program files (x86)/microchip/xc32/v1.42/bin/bin/../../lib/gcc/pic32mx/4.8.3/../../../../pic32mx/lib\libpic32.a(vector2.o)
 .reginfo       0x00000000       0x18 c:/program files (x86)/microchip/xc32/v1.42/bin/bin/../../lib/gcc/pic32mx/4.8.3/../../../../pic32mx/lib\libpic32.a(vector2.o)
 .text          0x00000000        0x0 c:/program files (x86)/microchip/xc32/v1.42/bin/bin/../../lib/gcc/pic32mx/4.8.3/../../../../pic32mx/lib\libpic32.a(vector3.o)
 .data          0x00000000        0x0 c:/program files (x86)/microchip/xc32/v1.42/bin/bin/../../lib/gcc/pic32mx/4.8.3/../../../../pic32mx/lib\libpic32.a(vector3.o)
 .bss           0x00000000        0x0 c:/program files (x86)/microchip/xc32/v1.42/bin/bin/../../lib/gcc/pic32mx/4.8.3/../../../../pic32mx/lib\libpic32.a(vector3.o)
 .reginfo       0x00000000       0x18 c:/program files (x86)/microchip/xc32/v1.42/bin/bin/../../lib/gcc/pic32mx/4.8.3/../../../../pic32mx/lib\libpic32.a(vector3.o)
 .text          0x00000000        0x0 c:/program files (x86)/microchip/xc32/v1.42/bin/bin/../../lib/gcc/pic32mx/4.8.3/../../../../pic32mx/lib\libpic32.a(vector5.o)
 .data          0x00000000        0x0 c:/program files (x86)/microchip/xc32/v1.42/bin/bin/../../lib/gcc/pic32mx/4.8.3/../../../../pic32mx/lib\libpic32.a(vector5.o)
 .bss           0x00000000        0x0 c:/program files (x86)/microchip/xc32/v1.42/bin/bin/../../lib/gcc/pic32mx/4.8.3/../../../../pic32mx/lib\libpic32.a(vector5.o)
 .reginfo       0x00000000       0x18 c:/program files (x86)/microchip/xc32/v1.42/bin/bin/../../lib/gcc/pic32mx/4.8.3/../../../../pic32mx/lib\libpic32.a(vector5.o)
 .text          0x00000000        0x0 c:/program files (x86)/microchip/xc32/v1.42/bin/bin/../../lib/gcc/pic32mx/4.8.3/../../../../pic32mx/lib\libpic32.a(vector6.o)
 .data          0x00000000        0x0 c:/program files (x86)/microchip/xc32/v1.42/bin/bin/../../lib/gcc/pic32mx/4.8.3/../../../../pic32mx/lib\libpic32.a(vector6.o)
 .bss           0x00000000        0x0 c:/program files (x86)/microchip/xc32/v1.42/bin/bin/../../lib/gcc/pic32mx/4.8.3/../../../../pic32mx/lib\libpic32.a(vector6.o)
 .reginfo       0x00000000       0x18 c:/program files (x86)/microchip/xc32/v1.42/bin/bin/../../lib/gcc/pic32mx/4.8.3/../../../../pic32mx/lib\libpic32.a(vector6.o)
 .text          0x00000000        0x0 c:/program files (x86)/microchip/xc32/v1.42/bin/bin/../../lib/gcc/pic32mx/4.8.3/../../../../pic32mx/lib\libpic32.a(vector7.o)
 .data          0x00000000        0x0 c:/program files (x86)/microchip/xc32/v1.42/bin/bin/../../lib/gcc/pic32mx/4.8.3/../../../../pic32mx/lib\libpic32.a(vector7.o)
 .bss           0x00000000        0x0 c:/program files (x86)/microchip/xc32/v1.42/bin/bin/../../lib/gcc/pic32mx/4.8.3/../../../../pic32mx/lib\libpic32.a(vector7.o)
 .reginfo       0x00000000       0x18 c:/program files (x86)/microchip/xc32/v1.42/bin/bin/../../lib/gcc/pic32mx/4.8.3/../../../../pic32mx/lib\libpic32.a(vector7.o)
 .text          0x00000000        0x0 c:/program files (x86)/microchip/xc32/v1.42/bin/bin/../../lib/gcc/pic32mx/4.8.3/../../../../pic32mx/lib\libpic32.a(vector8.o)
 .data          0x00000000        0x0 c:/program files (x86)/microchip/xc32/v1.42/bin/bin/../../lib/gcc/pic32mx/4.8.3/../../../../pic32mx/lib\libpic32.a(vector8.o)
 .bss           0x00000000        0x0 c:/program files (x86)/microchip/xc32/v1.42/bin/bin/../../lib/gcc/pic32mx/4.8.3/../../../../pic32mx/lib\libpic32.a(vector8.o)
 .reginfo       0x00000000       0x18 c:/program files (x86)/microchip/xc32/v1.42/bin/bin/../../lib/gcc/pic32mx/4.8.3/../../../../pic32mx/lib\libpic32.a(vector8.o)
 .text          0x00000000        0x0 c:/program files (x86)/microchip/xc32/v1.42/bin/bin/../../lib/gcc/pic32mx/4.8.3/../../../../pic32mx/lib\libpic32.a(vector9.o)
 .data          0x00000000        0x0 c:/program files (x86)/microchip/xc32/v1.42/bin/bin/../../lib/gcc/pic32mx/4.8.3/../../../../pic32mx/lib\libpic32.a(vector9.o)
 .bss           0x00000000        0x0 c:/program files (x86)/microchip/xc32/v1.42/bin/bin/../../lib/gcc/pic32mx/4.8.3/../../../../pic32mx/lib\libpic32.a(vector9.o)
 .reginfo       0x00000000       0x18 c:/program files (x86)/microchip/xc32/v1.42/bin/bin/../../lib/gcc/pic32mx/4.8.3/../../../../pic32mx/lib\libpic32.a(vector9.o)
 .text          0x00000000        0x0 c:/program files (x86)/microchip/xc32/v1.42/bin/bin/../../lib/gcc/pic32mx/4.8.3/../../../../pic32mx/lib\libpic32.a(vector10.o)
 .data          0x00000000        0x0 c:/program files (x86)/microchip/xc32/v1.42/bin/bin/../../lib/gcc/pic32mx/4.8.3/../../../../pic32mx/lib\libpic32.a(vector10.o)
 .bss           0x00000000        0x0 c:/program files (x86)/microchip/xc32/v1.42/bin/bin/../../lib/gcc/pic32mx/4.8.3/../../../../pic32mx/lib\libpic32.a(vector10.o)
 .reginfo       0x00000000       0x18 c:/program files (x86)/microchip/xc32/v1.42/bin/bin/../../lib/gcc/pic32mx/4.8.3/../../../../pic32mx/lib\libpic32.a(vector10.o)
 .text          0x00000000        0x0 c:/program files (x86)/microchip/xc32/v1.42/bin/bin/../../lib/gcc/pic32mx/4.8.3/../../../../pic32mx/lib\libpic32.a(vector11.o)
 .data          0x00000000        0x0 c:/program files (x86)/microchip/xc32/v1.42/bin/bin/../../lib/gcc/pic32mx/4.8.3/../../../../pic32mx/lib\libpic32.a(vector11.o)
 .bss           0x00000000        0x0 c:/program files (x86)/microchip/xc32/v1.42/bin/bin/../../lib/gcc/pic32mx/4.8.3/../../../../pic32mx/lib\libpic32.a(vector11.o)
 .reginfo       0x00000000       0x18 c:/program files (x86)/microchip/xc32/v1.42/bin/bin/../../lib/gcc/pic32mx/4.8.3/../../../../pic32mx/lib\libpic32.a(vector11.o)
 .text          0x00000000        0x0 c:/program files (x86)/microchip/xc32/v1.42/bin/bin/../../lib/gcc/pic32mx/4.8.3/../../../../pic32mx/lib\libpic32.a(vector12.o)
 .data          0x00000000        0x0 c:/program files (x86)/microchip/xc32/v1.42/bin/bin/../../lib/gcc/pic32mx/4.8.3/../../../../pic32mx/lib\libpic32.a(vector12.o)
 .bss           0x00000000        0x0 c:/program files (x86)/microchip/xc32/v1.42/bin/bin/../../lib/gcc/pic32mx/4.8.3/../../../../pic32mx/lib\libpic32.a(vector12.o)
 .reginfo       0x00000000       0x18 c:/program files (x86)/microchip/xc32/v1.42/bin/bin/../../lib/gcc/pic32mx/4.8.3/../../../../pic32mx/lib\libpic32.a(vector12.o)
 .text          0x00000000        0x0 c:/program files (x86)/microchip/xc32/v1.42/bin/bin/../../lib/gcc/pic32mx/4.8.3/../../../../pic32mx/lib\libpic32.a(vector13.o)
 .data          0x00000000        0x0 c:/program files (x86)/microchip/xc32/v1.42/bin/bin/../../lib/gcc/pic32mx/4.8.3/../../../../pic32mx/lib\libpic32.a(vector13.o)
 .bss           0x00000000        0x0 c:/program files (x86)/microchip/xc32/v1.42/bin/bin/../../lib/gcc/pic32mx/4.8.3/../../../../pic32mx/lib\libpic32.a(vector13.o)
 .reginfo       0x00000000       0x18 c:/program files (x86)/microchip/xc32/v1.42/bin/bin/../../lib/gcc/pic32mx/4.8.3/../../../../pic32mx/lib\libpic32.a(vector13.o)
 .text          0x00000000        0x0 c:/program files (x86)/microchip/xc32/v1.42/bin/bin/../../lib/gcc/pic32mx/4.8.3/../../../../pic32mx/lib\libpic32.a(vector14.o)
 .data          0x00000000        0x0 c:/program files (x86)/microchip/xc32/v1.42/bin/bin/../../lib/gcc/pic32mx/4.8.3/../../../../pic32mx/lib\libpic32.a(vector14.o)
 .bss           0x00000000        0x0 c:/program files (x86)/microchip/xc32/v1.42/bin/bin/../../lib/gcc/pic32mx/4.8.3/../../../../pic32mx/lib\libpic32.a(vector14.o)
 .reginfo       0x00000000       0x18 c:/program files (x86)/microchip/xc32/v1.42/bin/bin/../../lib/gcc/pic32mx/4.8.3/../../../../pic32mx/lib\libpic32.a(vector14.o)
 .text          0x00000000        0x0 c:/program files (x86)/microchip/xc32/v1.42/bin/bin/../../lib/gcc/pic32mx/4.8.3/../../../../pic32mx/lib\libpic32.a(vector15.o)
 .data          0x00000000        0x0 c:/program files (x86)/microchip/xc32/v1.42/bin/bin/../../lib/gcc/pic32mx/4.8.3/../../../../pic32mx/lib\libpic32.a(vector15.o)
 .bss           0x00000000        0x0 c:/program files (x86)/microchip/xc32/v1.42/bin/bin/../../lib/gcc/pic32mx/4.8.3/../../../../pic32mx/lib\libpic32.a(vector15.o)
 .reginfo       0x00000000       0x18 c:/program files (x86)/microchip/xc32/v1.42/bin/bin/../../lib/gcc/pic32mx/4.8.3/../../../../pic32mx/lib\libpic32.a(vector15.o)
 .text          0x00000000        0x0 c:/program files (x86)/microchip/xc32/v1.42/bin/bin/../../lib/gcc/pic32mx/4.8.3/../../../../pic32mx/lib\libpic32.a(vector16.o)
 .data          0x00000000        0x0 c:/program files (x86)/microchip/xc32/v1.42/bin/bin/../../lib/gcc/pic32mx/4.8.3/../../../../pic32mx/lib\libpic32.a(vector16.o)
 .bss           0x00000000        0x0 c:/program files (x86)/microchip/xc32/v1.42/bin/bin/../../lib/gcc/pic32mx/4.8.3/../../../../pic32mx/lib\libpic32.a(vector16.o)
 .reginfo       0x00000000       0x18 c:/program files (x86)/microchip/xc32/v1.42/bin/bin/../../lib/gcc/pic32mx/4.8.3/../../../../pic32mx/lib\libpic32.a(vector16.o)
 .text          0x00000000        0x0 c:/program files (x86)/microchip/xc32/v1.42/bin/bin/../../lib/gcc/pic32mx/4.8.3/../../../../pic32mx/lib\libpic32.a(vector17.o)
 .data          0x00000000        0x0 c:/program files (x86)/microchip/xc32/v1.42/bin/bin/../../lib/gcc/pic32mx/4.8.3/../../../../pic32mx/lib\libpic32.a(vector17.o)
 .bss           0x00000000        0x0 c:/program files (x86)/microchip/xc32/v1.42/bin/bin/../../lib/gcc/pic32mx/4.8.3/../../../../pic32mx/lib\libpic32.a(vector17.o)
 .reginfo       0x00000000       0x18 c:/program files (x86)/microchip/xc32/v1.42/bin/bin/../../lib/gcc/pic32mx/4.8.3/../../../../pic32mx/lib\libpic32.a(vector17.o)
 .text          0x00000000        0x0 c:/program files (x86)/microchip/xc32/v1.42/bin/bin/../../lib/gcc/pic32mx/4.8.3/../../../../pic32mx/lib\libpic32.a(vector18.o)
 .data          0x00000000        0x0 c:/program files (x86)/microchip/xc32/v1.42/bin/bin/../../lib/gcc/pic32mx/4.8.3/../../../../pic32mx/lib\libpic32.a(vector18.o)
 .bss           0x00000000        0x0 c:/program files (x86)/microchip/xc32/v1.42/bin/bin/../../lib/gcc/pic32mx/4.8.3/../../../../pic32mx/lib\libpic32.a(vector18.o)
 .reginfo       0x00000000       0x18 c:/program files (x86)/microchip/xc32/v1.42/bin/bin/../../lib/gcc/pic32mx/4.8.3/../../../../pic32mx/lib\libpic32.a(vector18.o)
 .text          0x00000000        0x0 c:/program files (x86)/microchip/xc32/v1.42/bin/bin/../../lib/gcc/pic32mx/4.8.3/../../../../pic32mx/lib\libpic32.a(vector19.o)
 .data          0x00000000        0x0 c:/program files (x86)/microchip/xc32/v1.42/bin/bin/../../lib/gcc/pic32mx/4.8.3/../../../../pic32mx/lib\libpic32.a(vector19.o)
 .bss           0x00000000        0x0 c:/program files (x86)/microchip/xc32/v1.42/bin/bin/../../lib/gcc/pic32mx/4.8.3/../../../../pic32mx/lib\libpic32.a(vector19.o)
 .reginfo       0x00000000       0x18 c:/program files (x86)/microchip/xc32/v1.42/bin/bin/../../lib/gcc/pic32mx/4.8.3/../../../../pic32mx/lib\libpic32.a(vector19.o)
 .text          0x00000000        0x0 c:/program files (x86)/microchip/xc32/v1.42/bin/bin/../../lib/gcc/pic32mx/4.8.3/../../../../pic32mx/lib\libpic32.a(vector20.o)
 .data          0x00000000        0x0 c:/program files (x86)/microchip/xc32/v1.42/bin/bin/../../lib/gcc/pic32mx/4.8.3/../../../../pic32mx/lib\libpic32.a(vector20.o)
 .bss           0x00000000        0x0 c:/program files (x86)/microchip/xc32/v1.42/bin/bin/../../lib/gcc/pic32mx/4.8.3/../../../../pic32mx/lib\libpic32.a(vector20.o)
 .reginfo       0x00000000       0x18 c:/program files (x86)/microchip/xc32/v1.42/bin/bin/../../lib/gcc/pic32mx/4.8.3/../../../../pic32mx/lib\libpic32.a(vector20.o)
 .text          0x00000000        0x0 c:/program files (x86)/microchip/xc32/v1.42/bin/bin/../../lib/gcc/pic32mx/4.8.3/../../../../pic32mx/lib\libpic32.a(vector21.o)
 .data          0x00000000        0x0 c:/program files (x86)/microchip/xc32/v1.42/bin/bin/../../lib/gcc/pic32mx/4.8.3/../../../../pic32mx/lib\libpic32.a(vector21.o)
 .bss           0x00000000        0x0 c:/program files (x86)/microchip/xc32/v1.42/bin/bin/../../lib/gcc/pic32mx/4.8.3/../../../../pic32mx/lib\libpic32.a(vector21.o)
 .reginfo       0x00000000       0x18 c:/program files (x86)/microchip/xc32/v1.42/bin/bin/../../lib/gcc/pic32mx/4.8.3/../../../../pic32mx/lib\libpic32.a(vector21.o)
 .text          0x00000000        0x0 c:/program files (x86)/microchip/xc32/v1.42/bin/bin/../../lib/gcc/pic32mx/4.8.3/../../../../pic32mx/lib\libpic32.a(vector22.o)
 .data          0x00000000        0x0 c:/program files (x86)/microchip/xc32/v1.42/bin/bin/../../lib/gcc/pic32mx/4.8.3/../../../../pic32mx/lib\libpic32.a(vector22.o)
 .bss           0x00000000        0x0 c:/program files (x86)/microchip/xc32/v1.42/bin/bin/../../lib/gcc/pic32mx/4.8.3/../../../../pic32mx/lib\libpic32.a(vector22.o)
 .reginfo       0x00000000       0x18 c:/program files (x86)/microchip/xc32/v1.42/bin/bin/../../lib/gcc/pic32mx/4.8.3/../../../../pic32mx/lib\libpic32.a(vector22.o)
 .text          0x00000000        0x0 c:/program files (x86)/microchip/xc32/v1.42/bin/bin/../../lib/gcc/pic32mx/4.8.3/../../../../pic32mx/lib\libpic32.a(vector23.o)
 .data          0x00000000        0x0 c:/program files (x86)/microchip/xc32/v1.42/bin/bin/../../lib/gcc/pic32mx/4.8.3/../../../../pic32mx/lib\libpic32.a(vector23.o)
 .bss           0x00000000        0x0 c:/program files (x86)/microchip/xc32/v1.42/bin/bin/../../lib/gcc/pic32mx/4.8.3/../../../../pic32mx/lib\libpic32.a(vector23.o)
 .reginfo       0x00000000       0x18 c:/program files (x86)/microchip/xc32/v1.42/bin/bin/../../lib/gcc/pic32mx/4.8.3/../../../../pic32mx/lib\libpic32.a(vector23.o)
 .text          0x00000000        0x0 c:/program files (x86)/microchip/xc32/v1.42/bin/bin/../../lib/gcc/pic32mx/4.8.3/../../../../pic32mx/lib\libpic32.a(vector25.o)
 .data          0x00000000        0x0 c:/program files (x86)/microchip/xc32/v1.42/bin/bin/../../lib/gcc/pic32mx/4.8.3/../../../../pic32mx/lib\libpic32.a(vector25.o)
 .bss           0x00000000        0x0 c:/program files (x86)/microchip/xc32/v1.42/bin/bin/../../lib/gcc/pic32mx/4.8.3/../../../../pic32mx/lib\libpic32.a(vector25.o)
 .reginfo       0x00000000       0x18 c:/program files (x86)/microchip/xc32/v1.42/bin/bin/../../lib/gcc/pic32mx/4.8.3/../../../../pic32mx/lib\libpic32.a(vector25.o)
 .text          0x00000000        0x0 c:/program files (x86)/microchip/xc32/v1.42/bin/bin/../../lib/gcc/pic32mx/4.8.3/../../../../pic32mx/lib\libpic32.a(vector26.o)
 .data          0x00000000        0x0 c:/program files (x86)/microchip/xc32/v1.42/bin/bin/../../lib/gcc/pic32mx/4.8.3/../../../../pic32mx/lib\libpic32.a(vector26.o)
 .bss           0x00000000        0x0 c:/program files (x86)/microchip/xc32/v1.42/bin/bin/../../lib/gcc/pic32mx/4.8.3/../../../../pic32mx/lib\libpic32.a(vector26.o)
 .reginfo       0x00000000       0x18 c:/program files (x86)/microchip/xc32/v1.42/bin/bin/../../lib/gcc/pic32mx/4.8.3/../../../../pic32mx/lib\libpic32.a(vector26.o)
 .text          0x00000000        0x0 c:/program files (x86)/microchip/xc32/v1.42/bin/bin/../../lib/gcc/pic32mx/4.8.3/../../../../pic32mx/lib\libpic32.a(vector28.o)
 .data          0x00000000        0x0 c:/program files (x86)/microchip/xc32/v1.42/bin/bin/../../lib/gcc/pic32mx/4.8.3/../../../../pic32mx/lib\libpic32.a(vector28.o)
 .bss           0x00000000        0x0 c:/program files (x86)/microchip/xc32/v1.42/bin/bin/../../lib/gcc/pic32mx/4.8.3/../../../../pic32mx/lib\libpic32.a(vector28.o)
 .reginfo       0x00000000       0x18 c:/program files (x86)/microchip/xc32/v1.42/bin/bin/../../lib/gcc/pic32mx/4.8.3/../../../../pic32mx/lib\libpic32.a(vector28.o)
 .text          0x00000000        0x0 c:/program files (x86)/microchip/xc32/v1.42/bin/bin/../../lib/gcc/pic32mx/4.8.3/../../../../pic32mx/lib\libpic32.a(vector29.o)
 .data          0x00000000        0x0 c:/program files (x86)/microchip/xc32/v1.42/bin/bin/../../lib/gcc/pic32mx/4.8.3/../../../../pic32mx/lib\libpic32.a(vector29.o)
 .bss           0x00000000        0x0 c:/program files (x86)/microchip/xc32/v1.42/bin/bin/../../lib/gcc/pic32mx/4.8.3/../../../../pic32mx/lib\libpic32.a(vector29.o)
 .reginfo       0x00000000       0x18 c:/program files (x86)/microchip/xc32/v1.42/bin/bin/../../lib/gcc/pic32mx/4.8.3/../../../../pic32mx/lib\libpic32.a(vector29.o)
 .text          0x00000000        0x0 c:/program files (x86)/microchip/xc32/v1.42/bin/bin/../../lib/gcc/pic32mx/4.8.3/../../../../pic32mx/lib\libpic32.a(vector30.o)
 .data          0x00000000        0x0 c:/program files (x86)/microchip/xc32/v1.42/bin/bin/../../lib/gcc/pic32mx/4.8.3/../../../../pic32mx/lib\libpic32.a(vector30.o)
 .bss           0x00000000        0x0 c:/program files (x86)/microchip/xc32/v1.42/bin/bin/../../lib/gcc/pic32mx/4.8.3/../../../../pic32mx/lib\libpic32.a(vector30.o)
 .reginfo       0x00000000       0x18 c:/program files (x86)/microchip/xc32/v1.42/bin/bin/../../lib/gcc/pic32mx/4.8.3/../../../../pic32mx/lib\libpic32.a(vector30.o)
 .text          0x00000000        0x0 c:/program files (x86)/microchip/xc32/v1.42/bin/bin/../../lib/gcc/pic32mx/4.8.3/../../../../pic32mx/lib\libpic32.a(vector31.o)
 .data          0x00000000        0x0 c:/program files (x86)/microchip/xc32/v1.42/bin/bin/../../lib/gcc/pic32mx/4.8.3/../../../../pic32mx/lib\libpic32.a(vector31.o)
 .bss           0x00000000        0x0 c:/program files (x86)/microchip/xc32/v1.42/bin/bin/../../lib/gcc/pic32mx/4.8.3/../../../../pic32mx/lib\libpic32.a(vector31.o)
 .reginfo       0x00000000       0x18 c:/program files (x86)/microchip/xc32/v1.42/bin/bin/../../lib/gcc/pic32mx/4.8.3/../../../../pic32mx/lib\libpic32.a(vector31.o)
 .text          0x00000000        0x0 c:/program files (x86)/microchip/xc32/v1.42/bin/bin/../../lib/gcc/pic32mx/4.8.3/../../../../pic32mx/lib\libpic32.a(vector32.o)
 .data          0x00000000        0x0 c:/program files (x86)/microchip/xc32/v1.42/bin/bin/../../lib/gcc/pic32mx/4.8.3/../../../../pic32mx/lib\libpic32.a(vector32.o)
 .bss           0x00000000        0x0 c:/program files (x86)/microchip/xc32/v1.42/bin/bin/../../lib/gcc/pic32mx/4.8.3/../../../../pic32mx/lib\libpic32.a(vector32.o)
 .reginfo       0x00000000       0x18 c:/program files (x86)/microchip/xc32/v1.42/bin/bin/../../lib/gcc/pic32mx/4.8.3/../../../../pic32mx/lib\libpic32.a(vector32.o)
 .text          0x00000000        0x0 c:/program files (x86)/microchip/xc32/v1.42/bin/bin/../../lib/gcc/pic32mx/4.8.3/../../../../pic32mx/lib\libpic32.a(vector33.o)
 .data          0x00000000        0x0 c:/program files (x86)/microchip/xc32/v1.42/bin/bin/../../lib/gcc/pic32mx/4.8.3/../../../../pic32mx/lib\libpic32.a(vector33.o)
 .bss           0x00000000        0x0 c:/program files (x86)/microchip/xc32/v1.42/bin/bin/../../lib/gcc/pic32mx/4.8.3/../../../../pic32mx/lib\libpic32.a(vector33.o)
 .reginfo       0x00000000       0x18 c:/program files (x86)/microchip/xc32/v1.42/bin/bin/../../lib/gcc/pic32mx/4.8.3/../../../../pic32mx/lib\libpic32.a(vector33.o)
 .text          0x00000000        0x0 c:/program files (x86)/microchip/xc32/v1.42/bin/bin/../../lib/gcc/pic32mx/4.8.3/../../../../pic32mx/lib\libpic32.a(vector34.o)
 .data          0x00000000        0x0 c:/program files (x86)/microchip/xc32/v1.42/bin/bin/../../lib/gcc/pic32mx/4.8.3/../../../../pic32mx/lib\libpic32.a(vector34.o)
 .bss           0x00000000        0x0 c:/program files (x86)/microchip/xc32/v1.42/bin/bin/../../lib/gcc/pic32mx/4.8.3/../../../../pic32mx/lib\libpic32.a(vector34.o)
 .reginfo       0x00000000       0x18 c:/program files (x86)/microchip/xc32/v1.42/bin/bin/../../lib/gcc/pic32mx/4.8.3/../../../../pic32mx/lib\libpic32.a(vector34.o)
 .text          0x00000000        0x0 c:/program files (x86)/microchip/xc32/v1.42/bin/bin/../../lib/gcc/pic32mx/4.8.3/../../../../pic32mx/lib\libpic32.a(vector35.o)
 .data          0x00000000        0x0 c:/program files (x86)/microchip/xc32/v1.42/bin/bin/../../lib/gcc/pic32mx/4.8.3/../../../../pic32mx/lib\libpic32.a(vector35.o)
 .bss           0x00000000        0x0 c:/program files (x86)/microchip/xc32/v1.42/bin/bin/../../lib/gcc/pic32mx/4.8.3/../../../../pic32mx/lib\libpic32.a(vector35.o)
 .reginfo       0x00000000       0x18 c:/program files (x86)/microchip/xc32/v1.42/bin/bin/../../lib/gcc/pic32mx/4.8.3/../../../../pic32mx/lib\libpic32.a(vector35.o)
 .text          0x00000000        0x0 c:/program files (x86)/microchip/xc32/v1.42/bin/bin/../../lib/gcc/pic32mx/4.8.3/../../../../pic32mx/lib\libpic32.a(vector36.o)
 .data          0x00000000        0x0 c:/program files (x86)/microchip/xc32/v1.42/bin/bin/../../lib/gcc/pic32mx/4.8.3/../../../../pic32mx/lib\libpic32.a(vector36.o)
 .bss           0x00000000        0x0 c:/program files (x86)/microchip/xc32/v1.42/bin/bin/../../lib/gcc/pic32mx/4.8.3/../../../../pic32mx/lib\libpic32.a(vector36.o)
 .reginfo       0x00000000       0x18 c:/program files (x86)/microchip/xc32/v1.42/bin/bin/../../lib/gcc/pic32mx/4.8.3/../../../../pic32mx/lib\libpic32.a(vector36.o)
 .text          0x00000000        0x0 c:/program files (x86)/microchip/xc32/v1.42/bin/bin/../../lib/gcc/pic32mx/4.8.3/../../../../pic32mx/lib\libpic32.a(vector37.o)
 .data          0x00000000        0x0 c:/program files (x86)/microchip/xc32/v1.42/bin/bin/../../lib/gcc/pic32mx/4.8.3/../../../../pic32mx/lib\libpic32.a(vector37.o)
 .bss           0x00000000        0x0 c:/program files (x86)/microchip/xc32/v1.42/bin/bin/../../lib/gcc/pic32mx/4.8.3/../../../../pic32mx/lib\libpic32.a(vector37.o)
 .reginfo       0x00000000       0x18 c:/program files (x86)/microchip/xc32/v1.42/bin/bin/../../lib/gcc/pic32mx/4.8.3/../../../../pic32mx/lib\libpic32.a(vector37.o)
 .text          0x00000000        0x0 c:/program files (x86)/microchip/xc32/v1.42/bin/bin/../../lib/gcc/pic32mx/4.8.3/../../../../pic32mx/lib\libpic32.a(vector38.o)
 .data          0x00000000        0x0 c:/program files (x86)/microchip/xc32/v1.42/bin/bin/../../lib/gcc/pic32mx/4.8.3/../../../../pic32mx/lib\libpic32.a(vector38.o)
 .bss           0x00000000        0x0 c:/program files (x86)/microchip/xc32/v1.42/bin/bin/../../lib/gcc/pic32mx/4.8.3/../../../../pic32mx/lib\libpic32.a(vector38.o)
 .reginfo       0x00000000       0x18 c:/program files (x86)/microchip/xc32/v1.42/bin/bin/../../lib/gcc/pic32mx/4.8.3/../../../../pic32mx/lib\libpic32.a(vector38.o)
 .text          0x00000000        0x0 c:/program files (x86)/microchip/xc32/v1.42/bin/bin/../../lib/gcc/pic32mx/4.8.3/../../../../pic32mx/lib\libpic32.a(vector39.o)
 .data          0x00000000        0x0 c:/program files (x86)/microchip/xc32/v1.42/bin/bin/../../lib/gcc/pic32mx/4.8.3/../../../../pic32mx/lib\libpic32.a(vector39.o)
 .bss           0x00000000        0x0 c:/program files (x86)/microchip/xc32/v1.42/bin/bin/../../lib/gcc/pic32mx/4.8.3/../../../../pic32mx/lib\libpic32.a(vector39.o)
 .reginfo       0x00000000       0x18 c:/program files (x86)/microchip/xc32/v1.42/bin/bin/../../lib/gcc/pic32mx/4.8.3/../../../../pic32mx/lib\libpic32.a(vector39.o)
 .text          0x00000000        0x0 c:/program files (x86)/microchip/xc32/v1.42/bin/bin/../../lib/gcc/pic32mx/4.8.3/../../../../pic32mx/lib\libpic32.a(vector40.o)
 .data          0x00000000        0x0 c:/program files (x86)/microchip/xc32/v1.42/bin/bin/../../lib/gcc/pic32mx/4.8.3/../../../../pic32mx/lib\libpic32.a(vector40.o)
 .bss           0x00000000        0x0 c:/program files (x86)/microchip/xc32/v1.42/bin/bin/../../lib/gcc/pic32mx/4.8.3/../../../../pic32mx/lib\libpic32.a(vector40.o)
 .reginfo       0x00000000       0x18 c:/program files (x86)/microchip/xc32/v1.42/bin/bin/../../lib/gcc/pic32mx/4.8.3/../../../../pic32mx/lib\libpic32.a(vector40.o)
 .text          0x00000000        0x0 c:/program files (x86)/microchip/xc32/v1.42/bin/bin/../../lib/gcc/pic32mx/4.8.3/../../../../pic32mx/lib\libpic32.a(vector41.o)
 .data          0x00000000        0x0 c:/program files (x86)/microchip/xc32/v1.42/bin/bin/../../lib/gcc/pic32mx/4.8.3/../../../../pic32mx/lib\libpic32.a(vector41.o)
 .bss           0x00000000        0x0 c:/program files (x86)/microchip/xc32/v1.42/bin/bin/../../lib/gcc/pic32mx/4.8.3/../../../../pic32mx/lib\libpic32.a(vector41.o)
 .reginfo       0x00000000       0x18 c:/program files (x86)/microchip/xc32/v1.42/bin/bin/../../lib/gcc/pic32mx/4.8.3/../../../../pic32mx/lib\libpic32.a(vector41.o)
 .text          0x00000000        0x0 c:/program files (x86)/microchip/xc32/v1.42/bin/bin/../../lib/gcc/pic32mx/4.8.3/../../../../pic32mx/lib\libpic32.a(vector42.o)
 .data          0x00000000        0x0 c:/program files (x86)/microchip/xc32/v1.42/bin/bin/../../lib/gcc/pic32mx/4.8.3/../../../../pic32mx/lib\libpic32.a(vector42.o)
 .bss           0x00000000        0x0 c:/program files (x86)/microchip/xc32/v1.42/bin/bin/../../lib/gcc/pic32mx/4.8.3/../../../../pic32mx/lib\libpic32.a(vector42.o)
 .reginfo       0x00000000       0x18 c:/program files (x86)/microchip/xc32/v1.42/bin/bin/../../lib/gcc/pic32mx/4.8.3/../../../../pic32mx/lib\libpic32.a(vector42.o)
 .text          0x00000000        0x0 c:/program files (x86)/microchip/xc32/v1.42/bin/bin/../../lib/gcc/pic32mx/4.8.3/../../../../pic32mx/lib\libpic32.a(vector43.o)
 .data          0x00000000        0x0 c:/program files (x86)/microchip/xc32/v1.42/bin/bin/../../lib/gcc/pic32mx/4.8.3/../../../../pic32mx/lib\libpic32.a(vector43.o)
 .bss           0x00000000        0x0 c:/program files (x86)/microchip/xc32/v1.42/bin/bin/../../lib/gcc/pic32mx/4.8.3/../../../../pic32mx/lib\libpic32.a(vector43.o)
 .reginfo       0x00000000       0x18 c:/program files (x86)/microchip/xc32/v1.42/bin/bin/../../lib/gcc/pic32mx/4.8.3/../../../../pic32mx/lib\libpic32.a(vector43.o)
 .text          0x00000000        0x0 c:/program files (x86)/microchip/xc32/v1.42/bin/bin/../../lib/gcc/pic32mx/4.8.3/../../../../pic32mx/lib\libpic32.a(vector44.o)
 .data          0x00000000        0x0 c:/program files (x86)/microchip/xc32/v1.42/bin/bin/../../lib/gcc/pic32mx/4.8.3/../../../../pic32mx/lib\libpic32.a(vector44.o)
 .bss           0x00000000        0x0 c:/program files (x86)/microchip/xc32/v1.42/bin/bin/../../lib/gcc/pic32mx/4.8.3/../../../../pic32mx/lib\libpic32.a(vector44.o)
 .reginfo       0x00000000       0x18 c:/program files (x86)/microchip/xc32/v1.42/bin/bin/../../lib/gcc/pic32mx/4.8.3/../../../../pic32mx/lib\libpic32.a(vector44.o)
 .text          0x00000000        0x0 c:/program files (x86)/microchip/xc32/v1.42/bin/bin/../../lib/gcc/pic32mx/4.8.3/../../../../pic32mx/lib\libpic32.a(vector45.o)
 .data          0x00000000        0x0 c:/program files (x86)/microchip/xc32/v1.42/bin/bin/../../lib/gcc/pic32mx/4.8.3/../../../../pic32mx/lib\libpic32.a(vector45.o)
 .bss           0x00000000        0x0 c:/program files (x86)/microchip/xc32/v1.42/bin/bin/../../lib/gcc/pic32mx/4.8.3/../../../../pic32mx/lib\libpic32.a(vector45.o)
 .reginfo       0x00000000       0x18 c:/program files (x86)/microchip/xc32/v1.42/bin/bin/../../lib/gcc/pic32mx/4.8.3/../../../../pic32mx/lib\libpic32.a(vector45.o)
 .text          0x00000000        0x0 c:/program files (x86)/microchip/xc32/v1.42/bin/bin/../../lib/gcc/pic32mx/4.8.3/../../../../pic32mx/lib\libpic32.a(vector46.o)
 .data          0x00000000        0x0 c:/program files (x86)/microchip/xc32/v1.42/bin/bin/../../lib/gcc/pic32mx/4.8.3/../../../../pic32mx/lib\libpic32.a(vector46.o)
 .bss           0x00000000        0x0 c:/program files (x86)/microchip/xc32/v1.42/bin/bin/../../lib/gcc/pic32mx/4.8.3/../../../../pic32mx/lib\libpic32.a(vector46.o)
 .reginfo       0x00000000       0x18 c:/program files (x86)/microchip/xc32/v1.42/bin/bin/../../lib/gcc/pic32mx/4.8.3/../../../../pic32mx/lib\libpic32.a(vector46.o)
 .text          0x00000000        0x0 c:/program files (x86)/microchip/xc32/v1.42/bin/bin/../../lib/gcc/pic32mx/4.8.3/../../../../pic32mx/lib\libpic32.a(vector47.o)
 .data          0x00000000        0x0 c:/program files (x86)/microchip/xc32/v1.42/bin/bin/../../lib/gcc/pic32mx/4.8.3/../../../../pic32mx/lib\libpic32.a(vector47.o)
 .bss           0x00000000        0x0 c:/program files (x86)/microchip/xc32/v1.42/bin/bin/../../lib/gcc/pic32mx/4.8.3/../../../../pic32mx/lib\libpic32.a(vector47.o)
 .reginfo       0x00000000       0x18 c:/program files (x86)/microchip/xc32/v1.42/bin/bin/../../lib/gcc/pic32mx/4.8.3/../../../../pic32mx/lib\libpic32.a(vector47.o)
 .text          0x00000000        0x0 c:/program files (x86)/microchip/xc32/v1.42/bin/bin/../../lib/gcc/pic32mx/4.8.3/../../../../pic32mx/lib\libpic32.a(vector48.o)
 .data          0x00000000        0x0 c:/program files (x86)/microchip/xc32/v1.42/bin/bin/../../lib/gcc/pic32mx/4.8.3/../../../../pic32mx/lib\libpic32.a(vector48.o)
 .bss           0x00000000        0x0 c:/program files (x86)/microchip/xc32/v1.42/bin/bin/../../lib/gcc/pic32mx/4.8.3/../../../../pic32mx/lib\libpic32.a(vector48.o)
 .reginfo       0x00000000       0x18 c:/program files (x86)/microchip/xc32/v1.42/bin/bin/../../lib/gcc/pic32mx/4.8.3/../../../../pic32mx/lib\libpic32.a(vector48.o)
 .text          0x00000000        0x0 c:/program files (x86)/microchip/xc32/v1.42/bin/bin/../../lib/gcc/pic32mx/4.8.3/../../../../pic32mx/lib\libpic32.a(vector49.o)
 .data          0x00000000        0x0 c:/program files (x86)/microchip/xc32/v1.42/bin/bin/../../lib/gcc/pic32mx/4.8.3/../../../../pic32mx/lib\libpic32.a(vector49.o)
 .bss           0x00000000        0x0 c:/program files (x86)/microchip/xc32/v1.42/bin/bin/../../lib/gcc/pic32mx/4.8.3/../../../../pic32mx/lib\libpic32.a(vector49.o)
 .reginfo       0x00000000       0x18 c:/program files (x86)/microchip/xc32/v1.42/bin/bin/../../lib/gcc/pic32mx/4.8.3/../../../../pic32mx/lib\libpic32.a(vector49.o)
 .text          0x00000000        0x0 c:/program files (x86)/microchip/xc32/v1.42/bin/bin/../../lib/gcc/pic32mx/4.8.3/../../../../pic32mx/lib\libpic32.a(vector50.o)
 .data          0x00000000        0x0 c:/program files (x86)/microchip/xc32/v1.42/bin/bin/../../lib/gcc/pic32mx/4.8.3/../../../../pic32mx/lib\libpic32.a(vector50.o)
 .bss           0x00000000        0x0 c:/program files (x86)/microchip/xc32/v1.42/bin/bin/../../lib/gcc/pic32mx/4.8.3/../../../../pic32mx/lib\libpic32.a(vector50.o)
 .reginfo       0x00000000       0x18 c:/program files (x86)/microchip/xc32/v1.42/bin/bin/../../lib/gcc/pic32mx/4.8.3/../../../../pic32mx/lib\libpic32.a(vector50.o)
 .text          0x00000000        0x0 c:/program files (x86)/microchip/xc32/v1.42/bin/bin/../../lib/gcc/pic32mx/4.8.3/../../../../pic32mx/lib\libpic32.a(vector51.o)
 .data          0x00000000        0x0 c:/program files (x86)/microchip/xc32/v1.42/bin/bin/../../lib/gcc/pic32mx/4.8.3/../../../../pic32mx/lib\libpic32.a(vector51.o)
 .bss           0x00000000        0x0 c:/program files (x86)/microchip/xc32/v1.42/bin/bin/../../lib/gcc/pic32mx/4.8.3/../../../../pic32mx/lib\libpic32.a(vector51.o)
 .reginfo       0x00000000       0x18 c:/program files (x86)/microchip/xc32/v1.42/bin/bin/../../lib/gcc/pic32mx/4.8.3/../../../../pic32mx/lib\libpic32.a(vector51.o)
 .text          0x00000000        0x0 c:/program files (x86)/microchip/xc32/v1.42/bin/bin/../../lib/gcc/pic32mx/4.8.3/../../../../pic32mx/lib\libpic32.a(defaultinterrupt.o)
 .data          0x00000000        0x0 c:/program files (x86)/microchip/xc32/v1.42/bin/bin/../../lib/gcc/pic32mx/4.8.3/../../../../pic32mx/lib\libpic32.a(defaultinterrupt.o)
 .bss           0x00000000        0x0 c:/program files (x86)/microchip/xc32/v1.42/bin/bin/../../lib/gcc/pic32mx/4.8.3/../../../../pic32mx/lib\libpic32.a(defaultinterrupt.o)
 .reginfo       0x00000000       0x18 c:/program files (x86)/microchip/xc32/v1.42/bin/bin/../../lib/gcc/pic32mx/4.8.3/../../../../pic32mx/lib\libpic32.a(defaultinterrupt.o)

Memory Configuration

Name             Origin             Length             Attributes
kseg0_program_mem 0x9d000000         0x00080000         xr
kseg0_boot_mem   0x9fc00490         0x00000970
exception_mem    0x9fc01000         0x00001000
kseg1_boot_mem   0xbfc00000         0x00000490
debug_exec_mem   0xbfc02000         0x00000ff0
config3          0xbfc02ff0         0x00000004
config2          0xbfc02ff4         0x00000004
config1          0xbfc02ff8         0x00000004
config0          0xbfc02ffc         0x00000004
kseg1_data_mem   0xa0000000         0x00020000         w !x
sfrs             0xbf800000         0x00100000
configsfrs       0xbfc02ff0         0x00000010
*default*        0x00000000         0xffffffff

Linker script and memory map

LOAD c:/program files (x86)/microchip/xc32/v1.42/bin/bin/../../lib/gcc/pic32mx/4.8.3/../../../../pic32mx/lib/./proc/32MX795F512L/crt0_mips32r2.o
LOAD c:/program files (x86)/microchip/xc32/v1.42/bin/bin/../../lib/gcc/pic32mx/4.8.3/../../../../pic32mx/lib\debug-exception-return.o
LOAD build/default/production/_ext/341040409/osal_freertos.o
LOAD build/default/production/_ext/23466643/sys_devcon.o
LOAD build/default/production/_ext/23466643/sys_devcon_pic32mx.o
LOAD build/default/production/_ext/1667967065/sys_int_pic32.o
LOAD build/default/production/_ext/357001740/croutine.o
LOAD build/default/production/_ext/357001740/list.o
LOAD build/default/production/_ext/357001740/queue.o
LOAD build/default/production/_ext/357001740/tasks.o
LOAD build/default/production/_ext/357001740/timers.o
LOAD build/default/production/_ext/357001740/event_groups.o
LOAD build/default/production/_ext/1663225769/heap_1.o
LOAD build/default/production/_ext/201381206/port.o
LOAD build/default/production/_ext/201381206/port_asm.o
LOAD build/default/production/_ext/1360937237/mainapp.o
LOAD build/default/production/_ext/1360937237/motor_control.o
LOAD build/default/production/_ext/1360937237/uart_tx.o
LOAD build/default/production/_ext/1360937237/uart_rx.o
LOAD build/default/production/_ext/1361460060/drv_adc_static.o
LOAD build/default/production/_ext/327000265/drv_usart_mapping.o
LOAD build/default/production/_ext/327000265/drv_usart_static.o
LOAD build/default/production/_ext/327000265/drv_usart_static_byte_model.o
LOAD build/default/production/_ext/639803181/sys_clk_static.o
LOAD build/default/production/_ext/822048611/sys_ports_static.o
LOAD build/default/production/_ext/1688732426/system_init.o
LOAD build/default/production/_ext/1688732426/system_interrupt.o
LOAD build/default/production/_ext/1688732426/system_exceptions.o
LOAD build/default/production/_ext/1360937237/main.o
LOAD build/default/production/_ext/1688732426/system_tasks.o
LOAD build/default/production/_ext/1688732426/system_interrupt_a.o
LOAD build/default/production/_ext/1688732426/rtos_hooks.o
LOAD ..\..\..\..\..\microchip\harmony\v1_08_01\bin\framework\peripheral\PIC32MX795F512L_peripherals.a
LOAD ..\..\..\..\..\microchip\harmony\v1_08_01\framework\tcpip\src\crypto\aes_pic32mx.a
                0x00000001                __MPLAB_BUILD = 0x1
                0x00000000                _min_heap_size = 0x0
LOAD c:/program files (x86)/microchip/xc32/v1.42/bin/bin/../../lib/gcc/pic32mx/4.8.3/../../../../pic32mx/lib/./proc/32MX795F512L\default_isr_vectors.o
LOAD c:/program files (x86)/microchip/xc32/v1.42/bin/bin/../../lib/gcc/pic32mx/4.8.3/../../../../pic32mx/lib\pic32_software_reset.o
                0x00000400                PROVIDE (_min_stack_size, 0x400)
LOAD c:/program files (x86)/microchip/xc32/v1.42/bin/bin/../../lib/gcc/pic32mx/4.8.3/../../../../pic32mx/lib/./proc/32MX795F512L\processor.o
START GROUP
LOAD libmchp_peripheral.a
END GROUP
START GROUP
LOAD libmchp_peripheral_32MX795F512L.a
END GROUP
                0x00000001                PROVIDE (_vector_spacing, 0x1)
                0x9fc01000                PROVIDE (_ebase_address, 0x9fc01000)
                0xbfc00000                _RESET_ADDR = 0xbfc00000
                0xbfc00380                _BEV_EXCPT_ADDR = 0xbfc00380
                0xbfc00480                _DBG_EXCPT_ADDR = 0xbfc00480
                0xbfc02000                _DBG_CODE_ADDR = 0xbfc02000
                0x00000ff0                _DBG_CODE_SIZE = 0xff0
                0x9fc01180                _GEN_EXCPT_ADDR = (_ebase_address + 0x180)

.config_BFC02FF0
                0xbfc02ff0        0x4
 *(.config_BFC02FF0)
 .config_BFC02FF0
                0xbfc02ff0        0x4 build/default/production/_ext/1688732426/system_init.o

.config_BFC02FF4
                0xbfc02ff4        0x4
 *(.config_BFC02FF4)
 .config_BFC02FF4
                0xbfc02ff4        0x4 build/default/production/_ext/1688732426/system_init.o

.config_BFC02FF8
                0xbfc02ff8        0x4
 *(.config_BFC02FF8)
 .config_BFC02FF8
                0xbfc02ff8        0x4 build/default/production/_ext/1688732426/system_init.o

.config_BFC02FFC
                0xbfc02ffc        0x4
 *(.config_BFC02FFC)
 .config_BFC02FFC
                0xbfc02ffc        0x4 build/default/production/_ext/1688732426/system_init.o
                0xbfc02000                PROVIDE (_DBG_CODE_ADDR, 0xbfc02000)
                0x00000ff0                PROVIDE (_DBG_CODE_SIZE, 0xff0)

.reset          0xbfc00000      0x208
 *(.reset)
 .reset         0xbfc00000        0x8 c:/program files (x86)/microchip/xc32/v1.42/bin/bin/../../lib/gcc/pic32mx/4.8.3/../../../../pic32mx/lib/./proc/32MX795F512L/crt0_mips32r2.o
                0xbfc00000                _reset
 *(.reset.startup)
 .reset.startup
                0xbfc00008      0x200 c:/program files (x86)/microchip/xc32/v1.42/bin/bin/../../lib/gcc/pic32mx/4.8.3/../../../../pic32mx/lib/./proc/32MX795F512L/crt0_mips32r2.o

.bev_excpt      0xbfc00380       0x10
 *(.bev_handler)
 .bev_handler   0xbfc00380       0x10 c:/program files (x86)/microchip/xc32/v1.42/bin/bin/../../lib/gcc/pic32mx/4.8.3/../../../../pic32mx/lib/./proc/32MX795F512L/crt0_mips32r2.o

.dbg_excpt      0xbfc00480        0x0
                0xbfc00480                . = (. + DEFINED (_DEBUGGER)?0x8:0x0)

.dbg_code       0xbfc02000        0x0
                0xbfc02000                . = (. + DEFINED (_DEBUGGER)?_DBG_CODE_SIZE:0x0)

.app_excpt      0x9fc01180       0x10
 *(.gen_handler)
 .gen_handler   0x9fc01180       0x10 c:/program files (x86)/microchip/xc32/v1.42/bin/bin/../../lib/gcc/pic32mx/4.8.3/../../../../pic32mx/lib/./proc/32MX795F512L/crt0_mips32r2.o

.vector_0       0x9fc01200        0x8
 *(.vector_0)
 .vector_0      0x9fc01200        0x8 c:/program files (x86)/microchip/xc32/v1.42/bin/bin/../../lib/gcc/pic32mx/4.8.3/../../../../pic32mx/lib\libpic32.a(vector0.o)
                0x9fc01200                __vector_dispatch_0
                0x00000001                ASSERT (((_vector_spacing == 0x0) || (SIZEOF (.vector_0) <= (_vector_spacing << 0x5))), function at exception vector 0 too large)

.vector_1       0x9fc01220        0x8
 *(.vector_1)
 .vector_1      0x9fc01220        0x8 build/default/production/_ext/201381206/port.o
                0x9fc01220                __vector_dispatch_1
                0x00000001                ASSERT (((_vector_spacing == 0x0) || (SIZEOF (.vector_1) <= (_vector_spacing << 0x5))), function at exception vector 1 too large)

.vector_2       0x9fc01240        0x8
 *(.vector_2)
 .vector_2      0x9fc01240        0x8 c:/program files (x86)/microchip/xc32/v1.42/bin/bin/../../lib/gcc/pic32mx/4.8.3/../../../../pic32mx/lib\libpic32.a(vector2.o)
                0x9fc01240                __vector_dispatch_2
                0x00000001                ASSERT (((_vector_spacing == 0x0) || (SIZEOF (.vector_2) <= (_vector_spacing << 0x5))), function at exception vector 2 too large)

.vector_3       0x9fc01260        0x8
 *(.vector_3)
 .vector_3      0x9fc01260        0x8 c:/program files (x86)/microchip/xc32/v1.42/bin/bin/../../lib/gcc/pic32mx/4.8.3/../../../../pic32mx/lib\libpic32.a(vector3.o)
                0x9fc01260                __vector_dispatch_3
                0x00000001                ASSERT (((_vector_spacing == 0x0) || (SIZEOF (.vector_3) <= (_vector_spacing << 0x5))), function at exception vector 3 too large)

.vector_4       0x9fc01280        0x8
 *(.vector_4)
 .vector_4      0x9fc01280        0x8 build/default/production/_ext/201381206/port.o
                0x9fc01280                __vector_dispatch_4
                0x00000001                ASSERT (((_vector_spacing == 0x0) || (SIZEOF (.vector_4) <= (_vector_spacing << 0x5))), function at exception vector 4 too large)

.vector_5       0x9fc012a0        0x8
 *(.vector_5)
 .vector_5      0x9fc012a0        0x8 c:/program files (x86)/microchip/xc32/v1.42/bin/bin/../../lib/gcc/pic32mx/4.8.3/../../../../pic32mx/lib\libpic32.a(vector5.o)
                0x9fc012a0                __vector_dispatch_5
                0x00000001                ASSERT (((_vector_spacing == 0x0) || (SIZEOF (.vector_5) <= (_vector_spacing << 0x5))), function at exception vector 5 too large)

.vector_6       0x9fc012c0        0x8
 *(.vector_6)
 .vector_6      0x9fc012c0        0x8 c:/program files (x86)/microchip/xc32/v1.42/bin/bin/../../lib/gcc/pic32mx/4.8.3/../../../../pic32mx/lib\libpic32.a(vector6.o)
                0x9fc012c0                __vector_dispatch_6
                0x00000001                ASSERT (((_vector_spacing == 0x0) || (SIZEOF (.vector_6) <= (_vector_spacing << 0x5))), function at exception vector 6 too large)

.vector_7       0x9fc012e0        0x8
 *(.vector_7)
 .vector_7      0x9fc012e0        0x8 c:/program files (x86)/microchip/xc32/v1.42/bin/bin/../../lib/gcc/pic32mx/4.8.3/../../../../pic32mx/lib\libpic32.a(vector7.o)
                0x9fc012e0                __vector_dispatch_7
                0x00000001                ASSERT (((_vector_spacing == 0x0) || (SIZEOF (.vector_7) <= (_vector_spacing << 0x5))), function at exception vector 7 too large)

.vector_8       0x9fc01300        0x8
 *(.vector_8)
 .vector_8      0x9fc01300        0x8 c:/program files (x86)/microchip/xc32/v1.42/bin/bin/../../lib/gcc/pic32mx/4.8.3/../../../../pic32mx/lib\libpic32.a(vector8.o)
                0x9fc01300                __vector_dispatch_8
                0x00000001                ASSERT (((_vector_spacing == 0x0) || (SIZEOF (.vector_8) <= (_vector_spacing << 0x5))), function at exception vector 8 too large)

.vector_9       0x9fc01320        0x8
 *(.vector_9)
 .vector_9      0x9fc01320        0x8 c:/program files (x86)/microchip/xc32/v1.42/bin/bin/../../lib/gcc/pic32mx/4.8.3/../../../../pic32mx/lib\libpic32.a(vector9.o)
                0x9fc01320                __vector_dispatch_9
                0x00000001                ASSERT (((_vector_spacing == 0x0) || (SIZEOF (.vector_9) <= (_vector_spacing << 0x5))), function at exception vector 9 too large)

.vector_10      0x9fc01340        0x8
 *(.vector_10)
 .vector_10     0x9fc01340        0x8 c:/program files (x86)/microchip/xc32/v1.42/bin/bin/../../lib/gcc/pic32mx/4.8.3/../../../../pic32mx/lib\libpic32.a(vector10.o)
                0x9fc01340                __vector_dispatch_10
                0x00000001                ASSERT (((_vector_spacing == 0x0) || (SIZEOF (.vector_10) <= (_vector_spacing << 0x5))), function at exception vector 10 too large)

.vector_11      0x9fc01360        0x8
 *(.vector_11)
 .vector_11     0x9fc01360        0x8 c:/program files (x86)/microchip/xc32/v1.42/bin/bin/../../lib/gcc/pic32mx/4.8.3/../../../../pic32mx/lib\libpic32.a(vector11.o)
                0x9fc01360                __vector_dispatch_11
                0x00000001                ASSERT (((_vector_spacing == 0x0) || (SIZEOF (.vector_11) <= (_vector_spacing << 0x5))), function at exception vector 11 too large)

.vector_12      0x9fc01380        0x8
 *(.vector_12)
 .vector_12     0x9fc01380        0x8 c:/program files (x86)/microchip/xc32/v1.42/bin/bin/../../lib/gcc/pic32mx/4.8.3/../../../../pic32mx/lib\libpic32.a(vector12.o)
                0x9fc01380                __vector_dispatch_12
                0x00000001                ASSERT (((_vector_spacing == 0x0) || (SIZEOF (.vector_12) <= (_vector_spacing << 0x5))), function at exception vector 12 too large)

.vector_13      0x9fc013a0        0x8
 *(.vector_13)
 .vector_13     0x9fc013a0        0x8 c:/program files (x86)/microchip/xc32/v1.42/bin/bin/../../lib/gcc/pic32mx/4.8.3/../../../../pic32mx/lib\libpic32.a(vector13.o)
                0x9fc013a0                __vector_dispatch_13
                0x00000001                ASSERT (((_vector_spacing == 0x0) || (SIZEOF (.vector_13) <= (_vector_spacing << 0x5))), function at exception vector 13 too large)

.vector_14      0x9fc013c0        0x8
 *(.vector_14)
 .vector_14     0x9fc013c0        0x8 c:/program files (x86)/microchip/xc32/v1.42/bin/bin/../../lib/gcc/pic32mx/4.8.3/../../../../pic32mx/lib\libpic32.a(vector14.o)
                0x9fc013c0                __vector_dispatch_14
                0x00000001                ASSERT (((_vector_spacing == 0x0) || (SIZEOF (.vector_14) <= (_vector_spacing << 0x5))), function at exception vector 14 too large)

.vector_15      0x9fc013e0        0x8
 *(.vector_15)
 .vector_15     0x9fc013e0        0x8 c:/program files (x86)/microchip/xc32/v1.42/bin/bin/../../lib/gcc/pic32mx/4.8.3/../../../../pic32mx/lib\libpic32.a(vector15.o)
                0x9fc013e0                __vector_dispatch_15
                0x00000001                ASSERT (((_vector_spacing == 0x0) || (SIZEOF (.vector_15) <= (_vector_spacing << 0x5))), function at exception vector 15 too large)

.vector_16      0x9fc01400        0x8
 *(.vector_16)
 .vector_16     0x9fc01400        0x8 c:/program files (x86)/microchip/xc32/v1.42/bin/bin/../../lib/gcc/pic32mx/4.8.3/../../../../pic32mx/lib\libpic32.a(vector16.o)
                0x9fc01400                __vector_dispatch_16
                0x00000001                ASSERT (((_vector_spacing == 0x0) || (SIZEOF (.vector_16) <= (_vector_spacing << 0x5))), function at exception vector 16 too large)

.vector_17      0x9fc01420        0x8
 *(.vector_17)
 .vector_17     0x9fc01420        0x8 c:/program files (x86)/microchip/xc32/v1.42/bin/bin/../../lib/gcc/pic32mx/4.8.3/../../../../pic32mx/lib\libpic32.a(vector17.o)
                0x9fc01420                __vector_dispatch_17
                0x00000001                ASSERT (((_vector_spacing == 0x0) || (SIZEOF (.vector_17) <= (_vector_spacing << 0x5))), function at exception vector 17 too large)

.vector_18      0x9fc01440        0x8
 *(.vector_18)
 .vector_18     0x9fc01440        0x8 c:/program files (x86)/microchip/xc32/v1.42/bin/bin/../../lib/gcc/pic32mx/4.8.3/../../../../pic32mx/lib\libpic32.a(vector18.o)
                0x9fc01440                __vector_dispatch_18
                0x00000001                ASSERT (((_vector_spacing == 0x0) || (SIZEOF (.vector_18) <= (_vector_spacing << 0x5))), function at exception vector 18 too large)

.vector_19      0x9fc01460        0x8
 *(.vector_19)
 .vector_19     0x9fc01460        0x8 c:/program files (x86)/microchip/xc32/v1.42/bin/bin/../../lib/gcc/pic32mx/4.8.3/../../../../pic32mx/lib\libpic32.a(vector19.o)
                0x9fc01460                __vector_dispatch_19
                0x00000001                ASSERT (((_vector_spacing == 0x0) || (SIZEOF (.vector_19) <= (_vector_spacing << 0x5))), function at exception vector 19 too large)

.vector_20      0x9fc01480        0x8
 *(.vector_20)
 .vector_20     0x9fc01480        0x8 c:/program files (x86)/microchip/xc32/v1.42/bin/bin/../../lib/gcc/pic32mx/4.8.3/../../../../pic32mx/lib\libpic32.a(vector20.o)
                0x9fc01480                __vector_dispatch_20
                0x00000001                ASSERT (((_vector_spacing == 0x0) || (SIZEOF (.vector_20) <= (_vector_spacing << 0x5))), function at exception vector 20 too large)

.vector_21      0x9fc014a0        0x8
 *(.vector_21)
 .vector_21     0x9fc014a0        0x8 c:/program files (x86)/microchip/xc32/v1.42/bin/bin/../../lib/gcc/pic32mx/4.8.3/../../../../pic32mx/lib\libpic32.a(vector21.o)
                0x9fc014a0                __vector_dispatch_21
                0x00000001                ASSERT (((_vector_spacing == 0x0) || (SIZEOF (.vector_21) <= (_vector_spacing << 0x5))), function at exception vector 21 too large)

.vector_22      0x9fc014c0        0x8
 *(.vector_22)
 .vector_22     0x9fc014c0        0x8 c:/program files (x86)/microchip/xc32/v1.42/bin/bin/../../lib/gcc/pic32mx/4.8.3/../../../../pic32mx/lib\libpic32.a(vector22.o)
                0x9fc014c0                __vector_dispatch_22
                0x00000001                ASSERT (((_vector_spacing == 0x0) || (SIZEOF (.vector_22) <= (_vector_spacing << 0x5))), function at exception vector 22 too large)

.vector_23      0x9fc014e0        0x8
 *(.vector_23)
 .vector_23     0x9fc014e0        0x8 c:/program files (x86)/microchip/xc32/v1.42/bin/bin/../../lib/gcc/pic32mx/4.8.3/../../../../pic32mx/lib\libpic32.a(vector23.o)
                0x9fc014e0                __vector_dispatch_23
                0x00000001                ASSERT (((_vector_spacing == 0x0) || (SIZEOF (.vector_23) <= (_vector_spacing << 0x5))), function at exception vector 23 too large)

.vector_24      0x9fc01500       0x10
 *(.vector_24)
 .vector_24     0x9fc01500       0x10 build/default/production/_ext/1688732426/system_interrupt_a.o
                0x9fc01500                __vector_dispatch_24
                0x00000001                ASSERT (((_vector_spacing == 0x0) || (SIZEOF (.vector_24) <= (_vector_spacing << 0x5))), function at exception vector 24 too large)

.vector_25      0x9fc01520        0x8
 *(.vector_25)
 .vector_25     0x9fc01520        0x8 c:/program files (x86)/microchip/xc32/v1.42/bin/bin/../../lib/gcc/pic32mx/4.8.3/../../../../pic32mx/lib\libpic32.a(vector25.o)
                0x9fc01520                __vector_dispatch_25
                0x00000001                ASSERT (((_vector_spacing == 0x0) || (SIZEOF (.vector_25) <= (_vector_spacing << 0x5))), function at exception vector 25 too large)

.vector_26      0x9fc01540        0x8
 *(.vector_26)
 .vector_26     0x9fc01540        0x8 c:/program files (x86)/microchip/xc32/v1.42/bin/bin/../../lib/gcc/pic32mx/4.8.3/../../../../pic32mx/lib\libpic32.a(vector26.o)
                0x9fc01540                __vector_dispatch_26
                0x00000001                ASSERT (((_vector_spacing == 0x0) || (SIZEOF (.vector_26) <= (_vector_spacing << 0x5))), function at exception vector 26 too large)

.vector_27      0x9fc01560       0x10
 *(.vector_27)
 .vector_27     0x9fc01560       0x10 build/default/production/_ext/1688732426/system_interrupt_a.o
                0x9fc01560                __vector_dispatch_27
                0x00000001                ASSERT (((_vector_spacing == 0x0) || (SIZEOF (.vector_27) <= (_vector_spacing << 0x5))), function at exception vector 27 too large)

.vector_28      0x9fc01580        0x8
 *(.vector_28)
 .vector_28     0x9fc01580        0x8 c:/program files (x86)/microchip/xc32/v1.42/bin/bin/../../lib/gcc/pic32mx/4.8.3/../../../../pic32mx/lib\libpic32.a(vector28.o)
                0x9fc01580                __vector_dispatch_28
                0x00000001                ASSERT (((_vector_spacing == 0x0) || (SIZEOF (.vector_28) <= (_vector_spacing << 0x5))), function at exception vector 28 too large)

.vector_29      0x9fc015a0        0x8
 *(.vector_29)
 .vector_29     0x9fc015a0        0x8 c:/program files (x86)/microchip/xc32/v1.42/bin/bin/../../lib/gcc/pic32mx/4.8.3/../../../../pic32mx/lib\libpic32.a(vector29.o)
                0x9fc015a0                __vector_dispatch_29
                0x00000001                ASSERT (((_vector_spacing == 0x0) || (SIZEOF (.vector_29) <= (_vector_spacing << 0x5))), function at exception vector 29 too large)

.vector_30      0x9fc015c0        0x8
 *(.vector_30)
 .vector_30     0x9fc015c0        0x8 c:/program files (x86)/microchip/xc32/v1.42/bin/bin/../../lib/gcc/pic32mx/4.8.3/../../../../pic32mx/lib\libpic32.a(vector30.o)
                0x9fc015c0                __vector_dispatch_30
                0x00000001                ASSERT (((_vector_spacing == 0x0) || (SIZEOF (.vector_30) <= (_vector_spacing << 0x5))), function at exception vector 30 too large)

.vector_31      0x9fc015e0        0x8
 *(.vector_31)
 .vector_31     0x9fc015e0        0x8 c:/program files (x86)/microchip/xc32/v1.42/bin/bin/../../lib/gcc/pic32mx/4.8.3/../../../../pic32mx/lib\libpic32.a(vector31.o)
                0x9fc015e0                __vector_dispatch_31
                0x00000001                ASSERT (((_vector_spacing == 0x0) || (SIZEOF (.vector_31) <= (_vector_spacing << 0x5))), function at exception vector 31 too large)

.vector_32      0x9fc01600        0x8
 *(.vector_32)
 .vector_32     0x9fc01600        0x8 c:/program files (x86)/microchip/xc32/v1.42/bin/bin/../../lib/gcc/pic32mx/4.8.3/../../../../pic32mx/lib\libpic32.a(vector32.o)
                0x9fc01600                __vector_dispatch_32
                0x00000001                ASSERT (((_vector_spacing == 0x0) || (SIZEOF (.vector_32) <= (_vector_spacing << 0x5))), function at exception vector 32 too large)

.vector_33      0x9fc01620        0x8
 *(.vector_33)
 .vector_33     0x9fc01620        0x8 c:/program files (x86)/microchip/xc32/v1.42/bin/bin/../../lib/gcc/pic32mx/4.8.3/../../../../pic32mx/lib\libpic32.a(vector33.o)
                0x9fc01620                __vector_dispatch_33
                0x00000001                ASSERT (((_vector_spacing == 0x0) || (SIZEOF (.vector_33) <= (_vector_spacing << 0x5))), function at exception vector 33 too large)

.vector_34      0x9fc01640        0x8
 *(.vector_34)
 .vector_34     0x9fc01640        0x8 c:/program files (x86)/microchip/xc32/v1.42/bin/bin/../../lib/gcc/pic32mx/4.8.3/../../../../pic32mx/lib\libpic32.a(vector34.o)
                0x9fc01640                __vector_dispatch_34
                0x00000001                ASSERT (((_vector_spacing == 0x0) || (SIZEOF (.vector_34) <= (_vector_spacing << 0x5))), function at exception vector 34 too large)

.vector_35      0x9fc01660        0x8
 *(.vector_35)
 .vector_35     0x9fc01660        0x8 c:/program files (x86)/microchip/xc32/v1.42/bin/bin/../../lib/gcc/pic32mx/4.8.3/../../../../pic32mx/lib\libpic32.a(vector35.o)
                0x9fc01660                __vector_dispatch_35
                0x00000001                ASSERT (((_vector_spacing == 0x0) || (SIZEOF (.vector_35) <= (_vector_spacing << 0x5))), function at exception vector 35 too large)

.vector_36      0x9fc01680        0x8
 *(.vector_36)
 .vector_36     0x9fc01680        0x8 c:/program files (x86)/microchip/xc32/v1.42/bin/bin/../../lib/gcc/pic32mx/4.8.3/../../../../pic32mx/lib\libpic32.a(vector36.o)
                0x9fc01680                __vector_dispatch_36
                0x00000001                ASSERT (((_vector_spacing == 0x0) || (SIZEOF (.vector_36) <= (_vector_spacing << 0x5))), function at exception vector 36 too large)

.vector_37      0x9fc016a0        0x8
 *(.vector_37)
 .vector_37     0x9fc016a0        0x8 c:/program files (x86)/microchip/xc32/v1.42/bin/bin/../../lib/gcc/pic32mx/4.8.3/../../../../pic32mx/lib\libpic32.a(vector37.o)
                0x9fc016a0                __vector_dispatch_37
                0x00000001                ASSERT (((_vector_spacing == 0x0) || (SIZEOF (.vector_37) <= (_vector_spacing << 0x5))), function at exception vector 37 too large)

.vector_38      0x9fc016c0        0x8
 *(.vector_38)
 .vector_38     0x9fc016c0        0x8 c:/program files (x86)/microchip/xc32/v1.42/bin/bin/../../lib/gcc/pic32mx/4.8.3/../../../../pic32mx/lib\libpic32.a(vector38.o)
                0x9fc016c0                __vector_dispatch_38
                0x00000001                ASSERT (((_vector_spacing == 0x0) || (SIZEOF (.vector_38) <= (_vector_spacing << 0x5))), function at exception vector 38 too large)

.vector_39      0x9fc016e0        0x8
 *(.vector_39)
 .vector_39     0x9fc016e0        0x8 c:/program files (x86)/microchip/xc32/v1.42/bin/bin/../../lib/gcc/pic32mx/4.8.3/../../../../pic32mx/lib\libpic32.a(vector39.o)
                0x9fc016e0                __vector_dispatch_39
                0x00000001                ASSERT (((_vector_spacing == 0x0) || (SIZEOF (.vector_39) <= (_vector_spacing << 0x5))), function at exception vector 39 too large)

.vector_40      0x9fc01700        0x8
 *(.vector_40)
 .vector_40     0x9fc01700        0x8 c:/program files (x86)/microchip/xc32/v1.42/bin/bin/../../lib/gcc/pic32mx/4.8.3/../../../../pic32mx/lib\libpic32.a(vector40.o)
                0x9fc01700                __vector_dispatch_40
                0x00000001                ASSERT (((_vector_spacing == 0x0) || (SIZEOF (.vector_40) <= (_vector_spacing << 0x5))), function at exception vector 40 too large)

.vector_41      0x9fc01720        0x8
 *(.vector_41)
 .vector_41     0x9fc01720        0x8 c:/program files (x86)/microchip/xc32/v1.42/bin/bin/../../lib/gcc/pic32mx/4.8.3/../../../../pic32mx/lib\libpic32.a(vector41.o)
                0x9fc01720                __vector_dispatch_41
                0x00000001                ASSERT (((_vector_spacing == 0x0) || (SIZEOF (.vector_41) <= (_vector_spacing << 0x5))), function at exception vector 41 too large)

.vector_42      0x9fc01740        0x8
 *(.vector_42)
 .vector_42     0x9fc01740        0x8 c:/program files (x86)/microchip/xc32/v1.42/bin/bin/../../lib/gcc/pic32mx/4.8.3/../../../../pic32mx/lib\libpic32.a(vector42.o)
                0x9fc01740                __vector_dispatch_42
                0x00000001                ASSERT (((_vector_spacing == 0x0) || (SIZEOF (.vector_42) <= (_vector_spacing << 0x5))), function at exception vector 42 too large)

.vector_43      0x9fc01760        0x8
 *(.vector_43)
 .vector_43     0x9fc01760        0x8 c:/program files (x86)/microchip/xc32/v1.42/bin/bin/../../lib/gcc/pic32mx/4.8.3/../../../../pic32mx/lib\libpic32.a(vector43.o)
                0x9fc01760                __vector_dispatch_43
                0x00000001                ASSERT (((_vector_spacing == 0x0) || (SIZEOF (.vector_43) <= (_vector_spacing << 0x5))), function at exception vector 43 too large)

.vector_44      0x9fc01780        0x8
 *(.vector_44)
 .vector_44     0x9fc01780        0x8 c:/program files (x86)/microchip/xc32/v1.42/bin/bin/../../lib/gcc/pic32mx/4.8.3/../../../../pic32mx/lib\libpic32.a(vector44.o)
                0x9fc01780                __vector_dispatch_44
                0x00000001                ASSERT (((_vector_spacing == 0x0) || (SIZEOF (.vector_44) <= (_vector_spacing << 0x5))), function at exception vector 44 too large)

.vector_45      0x9fc017a0        0x8
 *(.vector_45)
 .vector_45     0x9fc017a0        0x8 c:/program files (x86)/microchip/xc32/v1.42/bin/bin/../../lib/gcc/pic32mx/4.8.3/../../../../pic32mx/lib\libpic32.a(vector45.o)
                0x9fc017a0                __vector_dispatch_45
                0x00000001                ASSERT (((_vector_spacing == 0x0) || (SIZEOF (.vector_45) <= (_vector_spacing << 0x5))), function at exception vector 45 too large)

.vector_46      0x9fc017c0        0x8
 *(.vector_46)
 .vector_46     0x9fc017c0        0x8 c:/program files (x86)/microchip/xc32/v1.42/bin/bin/../../lib/gcc/pic32mx/4.8.3/../../../../pic32mx/lib\libpic32.a(vector46.o)
                0x9fc017c0                __vector_dispatch_46
                0x00000001                ASSERT (((_vector_spacing == 0x0) || (SIZEOF (.vector_46) <= (_vector_spacing << 0x5))), function at exception vector 46 too large)

.vector_47      0x9fc017e0        0x8
 *(.vector_47)
 .vector_47     0x9fc017e0        0x8 c:/program files (x86)/microchip/xc32/v1.42/bin/bin/../../lib/gcc/pic32mx/4.8.3/../../../../pic32mx/lib\libpic32.a(vector47.o)
                0x9fc017e0                __vector_dispatch_47
                0x00000001                ASSERT (((_vector_spacing == 0x0) || (SIZEOF (.vector_47) <= (_vector_spacing << 0x5))), function at exception vector 47 too large)

.vector_48      0x9fc01800        0x8
 *(.vector_48)
 .vector_48     0x9fc01800        0x8 c:/program files (x86)/microchip/xc32/v1.42/bin/bin/../../lib/gcc/pic32mx/4.8.3/../../../../pic32mx/lib\libpic32.a(vector48.o)
                0x9fc01800                __vector_dispatch_48
                0x00000001                ASSERT (((_vector_spacing == 0x0) || (SIZEOF (.vector_48) <= (_vector_spacing << 0x5))), function at exception vector 48 too large)

.vector_49      0x9fc01820        0x8
 *(.vector_49)
 .vector_49     0x9fc01820        0x8 c:/program files (x86)/microchip/xc32/v1.42/bin/bin/../../lib/gcc/pic32mx/4.8.3/../../../../pic32mx/lib\libpic32.a(vector49.o)
                0x9fc01820                __vector_dispatch_49
                0x00000001                ASSERT (((_vector_spacing == 0x0) || (SIZEOF (.vector_49) <= (_vector_spacing << 0x5))), function at exception vector 49 too large)

.vector_50      0x9fc01840        0x8
 *(.vector_50)
 .vector_50     0x9fc01840        0x8 c:/program files (x86)/microchip/xc32/v1.42/bin/bin/../../lib/gcc/pic32mx/4.8.3/../../../../pic32mx/lib\libpic32.a(vector50.o)
                0x9fc01840                __vector_dispatch_50
                0x00000001                ASSERT (((_vector_spacing == 0x0) || (SIZEOF (.vector_50) <= (_vector_spacing << 0x5))), function at exception vector 50 too large)

.vector_51      0x9fc01860        0x8
 *(.vector_51)
 .vector_51     0x9fc01860        0x8 c:/program files (x86)/microchip/xc32/v1.42/bin/bin/../../lib/gcc/pic32mx/4.8.3/../../../../pic32mx/lib\libpic32.a(vector51.o)
                0x9fc01860                __vector_dispatch_51
                0x00000001                ASSERT (((_vector_spacing == 0x0) || (SIZEOF (.vector_51) <= (_vector_spacing << 0x5))), function at exception vector 51 too large)

.vector_52      0x9fc01880        0x0
 *(.vector_52)
                0x00000001                ASSERT (((_vector_spacing == 0x0) || (SIZEOF (.vector_52) <= (_vector_spacing << 0x5))), function at exception vector 52 too large)

.vector_53      0x9fc018a0        0x0
 *(.vector_53)
                0x00000001                ASSERT (((_vector_spacing == 0x0) || (SIZEOF (.vector_53) <= (_vector_spacing << 0x5))), function at exception vector 53 too large)

.vector_54      0x9fc018c0        0x0
 *(.vector_54)
                0x00000001                ASSERT (((_vector_spacing == 0x0) || (SIZEOF (.vector_54) <= (_vector_spacing << 0x5))), function at exception vector 54 too large)

.vector_55      0x9fc018e0        0x0
 *(.vector_55)
                0x00000001                ASSERT (((_vector_spacing == 0x0) || (SIZEOF (.vector_55) <= (_vector_spacing << 0x5))), function at exception vector 55 too large)

.vector_56      0x9fc01900        0x0
 *(.vector_56)
                0x00000001                ASSERT (((_vector_spacing == 0x0) || (SIZEOF (.vector_56) <= (_vector_spacing << 0x5))), function at exception vector 56 too large)

.vector_57      0x9fc01920        0x0
 *(.vector_57)
                0x00000001                ASSERT (((_vector_spacing == 0x0) || (SIZEOF (.vector_57) <= (_vector_spacing << 0x5))), function at exception vector 57 too large)

.vector_58      0x9fc01940        0x0
 *(.vector_58)
                0x00000001                ASSERT (((_vector_spacing == 0x0) || (SIZEOF (.vector_58) <= (_vector_spacing << 0x5))), function at exception vector 58 too large)

.vector_59      0x9fc01960        0x0
 *(.vector_59)
                0x00000001                ASSERT (((_vector_spacing == 0x0) || (SIZEOF (.vector_59) <= (_vector_spacing << 0x5))), function at exception vector 59 too large)

.vector_60      0x9fc01980        0x0
 *(.vector_60)
                0x00000001                ASSERT (((_vector_spacing == 0x0) || (SIZEOF (.vector_60) <= (_vector_spacing << 0x5))), function at exception vector 60 too large)

.vector_61      0x9fc019a0        0x0
 *(.vector_61)
                0x00000001                ASSERT (((_vector_spacing == 0x0) || (SIZEOF (.vector_61) <= (_vector_spacing << 0x5))), function at exception vector 61 too large)

.vector_62      0x9fc019c0        0x0
 *(.vector_62)
                0x00000001                ASSERT (((_vector_spacing == 0x0) || (SIZEOF (.vector_62) <= (_vector_spacing << 0x5))), function at exception vector 62 too large)

.vector_63      0x9fc019e0        0x0
 *(.vector_63)
                0x00000001                ASSERT (((_vector_spacing == 0x0) || (SIZEOF (.vector_63) <= (_vector_spacing << 0x5))), function at exception vector 63 too large)

.startup
 *(.startup)

.text           0x9d000000        0x0
 *(.stub .gnu.linkonce.t.*)
 *(.text.*personality*)
 *(.mips16.fn.*)
 *(.mips16.call.*)
 *(.gnu.warning)
                0x9d000000                . = ALIGN (0x4)

.init           0x9d000000        0x0
 *crti.o(.init)
 *crtbegin.o(.init)
 *(EXCLUDE_FILE(*crtn.o *crtend?.o *crtend.o) .init)
 *crtend.o(.init)
 *crtn.o(.init)
                0x9d000000                . = ALIGN (0x4)

.fini           0x9d000000        0x0
 *(.fini)
                0x9d000000                . = ALIGN (0x4)

.preinit_array  0x9d000000        0x0
                0x9d000000                PROVIDE (__preinit_array_start, .)
 *(.preinit_array)
                0x9d000000                PROVIDE (__preinit_array_end, .)
                0x9d000000                . = ALIGN (0x4)

.init_array     0x9d000000        0x0
                0x9d000000                PROVIDE (__init_array_start, .)
 *(SORT(.init_array.*))
 *(.init_array)
                0x9d000000                PROVIDE (__init_array_end, .)
                0x9d000000                . = ALIGN (0x4)

.fini_array     0x9d000000        0x0
                0x9d000000                PROVIDE (__fini_array_start, .)
 *(SORT(.fini_array.*))
 *(.fini_array)
                0x9d000000                PROVIDE (__fini_array_end, .)
                0x9d000000                . = ALIGN (0x4)

.ctors          0x9d000000        0x0
 *crtbegin.o(.ctors)
 *crtbegin?.o(.ctors)
 *(EXCLUDE_FILE(*crtend?.o *crtend.o) .ctors)
 *(SORT(.ctors.*))
 *(.ctors)
                0x9d000000                . = ALIGN (0x4)

.dtors          0x9d000000        0x0
 *crtbegin.o(.dtors)
 *crtbegin?.o(.dtors)
 *(EXCLUDE_FILE(*crtend?.o *crtend.o) .dtors)
 *(SORT(.dtors.*))
 *(.dtors)
                0x9d000000                . = ALIGN (0x4)

.rodata         0x9d000000        0x0
 *(.gnu.linkonce.r.*)
 *(.rodata1)
                0x9d000000                . = ALIGN (0x4)

.sdata2         0x9fc00490        0x0
 *(.sdata2 .sdata2.* .gnu.linkonce.s2.*)
                0x9fc00490                . = ALIGN (0x4)

.sbss2          0x9fc00490        0x0
 *(.sbss2 .sbss2.* .gnu.linkonce.sb2.*)
                0x9fc00490                . = ALIGN (0x4)

.eh_frame_hdr
 *(.eh_frame_hdr)
                0x9fc00490                . = ALIGN (0x4)

.eh_frame
 *(.eh_frame)
                0x9fc00490                . = ALIGN (0x4)

.gcc_except_table
 *(.gcc_except_table .gcc_except_table.*)
                0x9fc00490                . = ALIGN (0x4)

.dbg_data       0xa0000000        0x0
                0xa0000000                . = (. + DEFINED (_DEBUGGER)?0x200:0x0)

.jcr            0xa0000000        0x0
 *(.jcr)
                0xa0000000                . = ALIGN (0x4)

.eh_frame
 *(.eh_frame)
                0xa0000000                . = ALIGN (0x4)

.gcc_except_table
 *(.gcc_except_table .gcc_except_table.*)
                0xa0000000                . = ALIGN (0x4)

.persist        0xa0000000        0x0
                0xa0000000                _persist_begin = .
 *(.persist .persist.*)
 *(.pbss .pbss.*)
                0xa0000000                . = ALIGN (0x4)
                0xa0000000                _persist_end = .

.data           0xa0000000        0x0
 *(.gnu.linkonce.d.*)
 *(.data1)
                0xa0000000                . = ALIGN (0x4)
                0xa0000000                . = .
                0xa0007ff0                _gp = (ALIGN (0x10) + 0x7ff0)

.got            0xa0000000        0x0
 *(.got.plt)
 *(.got)
                0xa0000000                . = ALIGN (0x4)

.sdata          0xa0000000        0x4
                0xa0000000                _sdata_begin = .
 *(.sdata .sdata.* .gnu.linkonce.s.*)
 .sdata         0xa0000000        0x4 build/default/production/_ext/201381206/port.o
                0xa0000000                uxInterruptNesting
                0xa0000004                . = ALIGN (0x4)
                0xa0000004                _sdata_end = .

.lit8
 *(.lit8)

.lit4
 *(.lit4)
                0xa0000004                . = ALIGN (0x4)
                0xa0000004                _data_end = .
                0xa0000004                _bss_begin = .

.sbss           0xa0000004       0x80
                0xa0000004                _sbss_begin = .
 *(.dynsbss)
 *(.sbss .sbss.* .gnu.linkonce.sb.*)
 .sbss          0xa0000004       0x38 build/default/production/_ext/357001740/tasks.o
                0xa0000038                pxCurrentTCB
 .sbss          0xa000003c        0x8 build/default/production/_ext/1663225769/heap_1.o
 .sbss          0xa0000044        0x4 build/default/production/_ext/201381206/port.o
                0xa0000044                uxSavedTaskStackPointer
 .sbss          0xa0000048        0xc build/default/production/_ext/1688732426/system_exceptions.o
 *(.scommon)
 .scommon       0xa0000054        0x8 build/default/production/_ext/23466643/sys_devcon.o
                0xa0000054                sysDevconObj
 .scommon       0xa000005c        0x4 build/default/production/_ext/1360937237/mainapp.o
                0xa000005c                mainappData
 .scommon       0xa0000060        0x4 build/default/production/_ext/1360937237/motor_control.o
                0xa0000060                motor_controlData
 .scommon       0xa0000064        0x8 build/default/production/_ext/1360937237/uart_tx.o
                0xa0000064                uart_txData
 .scommon       0xa000006c        0x8 build/default/production/_ext/1360937237/uart_rx.o
                0xa000006c                uart_rxData
 .scommon       0xa0000074        0x4 build/default/production/_ext/327000265/drv_usart_static.o
                0xa0000074                gDrvUSART0Obj
 .scommon       0xa0000078        0x8 build/default/production/_ext/1688732426/system_init.o
                0xa0000078                sysObj
 .scommon       0xa0000080        0x4 build/default/production/_ext/1688732426/system_interrupt.o
                0xa0000080                bufferQueue
                0xa0000084                _sbss_end = .
                0xa0000084                . = ALIGN (0x4)

.bss            0xa0000084        0x0
 *(.dynbss)
 *(COMMON)
                0xa0000084                . = ALIGN ((. != 0x0)?0x4:0x1)
                0xa0000084                . = ALIGN (0x4)
                0xa0000084                _end = .
                0xa0000084                _bss_end = .
                0x00020000                _bmxdudba_address = 0x20000
                0x00020000                _bmxdupba_address = 0x20000

/DISCARD/
 *(.pdr)
 *(.rel.dyn)
 *(.note.GNU-stack)
 *(.note.GNU-stack)
 *(.gnu_debuglink)
 *(.gnu.lto_*)
 *(.discard)

.gptab.sdata
 *(.gptab.data)
 *(.gptab.sdata)

.gptab.sbss
 *(.gptab.bss)
 *(.gptab.sbss)

.mdebug.abi32   0xa0000084        0x0
 *(.mdebug.abi32)
 .mdebug.abi32  0xa0000084        0x0 build/default/production/_ext/341040409/osal_freertos.o
 .mdebug.abi32  0xa0000084        0x0 build/default/production/_ext/23466643/sys_devcon.o
 .mdebug.abi32  0xa0000084        0x0 build/default/production/_ext/23466643/sys_devcon_pic32mx.o
 .mdebug.abi32  0xa0000084        0x0 build/default/production/_ext/1667967065/sys_int_pic32.o
 .mdebug.abi32  0xa0000084        0x0 build/default/production/_ext/357001740/croutine.o
 .mdebug.abi32  0xa0000084        0x0 build/default/production/_ext/357001740/list.o
 .mdebug.abi32  0xa0000084        0x0 build/default/production/_ext/357001740/queue.o
 .mdebug.abi32  0xa0000084        0x0 build/default/production/_ext/357001740/tasks.o
 .mdebug.abi32  0xa0000084        0x0 build/default/production/_ext/357001740/timers.o
 .mdebug.abi32  0xa0000084        0x0 build/default/production/_ext/357001740/event_groups.o
 .mdebug.abi32  0xa0000084        0x0 build/default/production/_ext/1663225769/heap_1.o
 .mdebug.abi32  0xa0000084        0x0 build/default/production/_ext/201381206/port.o
 .mdebug.abi32  0xa0000084        0x0 build/default/production/_ext/1360937237/mainapp.o
 .mdebug.abi32  0xa0000084        0x0 build/default/production/_ext/1360937237/motor_control.o
 .mdebug.abi32  0xa0000084        0x0 build/default/production/_ext/1360937237/uart_tx.o
 .mdebug.abi32  0xa0000084        0x0 build/default/production/_ext/1360937237/uart_rx.o
 .mdebug.abi32  0xa0000084        0x0 build/default/production/_ext/1361460060/drv_adc_static.o
 .mdebug.abi32  0xa0000084        0x0 build/default/production/_ext/327000265/drv_usart_mapping.o
 .mdebug.abi32  0xa0000084        0x0 build/default/production/_ext/327000265/drv_usart_static.o
 .mdebug.abi32  0xa0000084        0x0 build/default/production/_ext/327000265/drv_usart_static_byte_model.o
 .mdebug.abi32  0xa0000084        0x0 build/default/production/_ext/639803181/sys_clk_static.o
 .mdebug.abi32  0xa0000084        0x0 build/default/production/_ext/822048611/sys_ports_static.o
 .mdebug.abi32  0xa0000084        0x0 build/default/production/_ext/1688732426/system_init.o
 .mdebug.abi32  0xa0000084        0x0 build/default/production/_ext/1688732426/system_interrupt.o
 .mdebug.abi32  0xa0000084        0x0 build/default/production/_ext/1688732426/system_exceptions.o
 .mdebug.abi32  0xa0000084        0x0 build/default/production/_ext/1360937237/main.o
 .mdebug.abi32  0xa0000084        0x0 build/default/production/_ext/1688732426/system_tasks.o
 .mdebug.abi32  0xa0000084        0x0 build/default/production/_ext/1688732426/rtos_hooks.o
 .mdebug.abi32  0xa0000084        0x0 c:/program files (x86)/microchip/xc32/v1.42/bin/bin/../../lib/gcc/pic32mx/4.8.3/../../../../pic32mx/lib\libpic32.a(default-bootstrap-exception-handler.o)
 .mdebug.abi32  0xa0000084        0x0 c:/program files (x86)/microchip/xc32/v1.42/bin/bin/../../lib/gcc/pic32mx/4.8.3/../../../../pic32mx/lib\libpic32.a(default-on-reset.o)
 .mdebug.abi32  0xa0000084        0x0 c:/program files (x86)/microchip/xc32/v1.42/bin/bin/../../lib/gcc/pic32mx/4.8.3/../../../../pic32mx/lib\libpic32.a(default-on-bootstrap.o)
 .mdebug.abi32  0xa0000084        0x0 c:/program files (x86)/microchip/xc32/v1.42/bin/bin/../../lib/gcc/pic32mx/4.8.3/../../../../pic32mx/lib\libpic32.a(defaultinterrupt.o)

.mdebug.abiN32
 *(.mdebug.abiN32)

.mdebug.abi64
 *(.mdebug.abi64)

.mdebug.abiO64
 *(.mdebug.abiO64)

.mdebug.eabi32
 *(.mdebug.eabi32)

.mdebug.eabi64
 *(.mdebug.eabi64)

.gcc_compiled_long32
 *(.gcc_compiled_long32)

.gcc_compiled_long64
 *(.gcc_compiled_long64)

.stab
 *(.stab)

.stabstr
 *(.stabstr)

.stab.excl
 *(.stab.excl)

.stab.exclstr
 *(.stab.exclstr)

.stab.index
 *(.stab.index)

.stab.indexstr
 *(.stab.indexstr)

.comment        0x00000000       0x54
 *(.comment)
 .comment       0x00000000       0x3c build/default/production/_ext/341040409/osal_freertos.o
                                 0x3d (size before relaxing)
 .comment       0x00000000       0x3d build/default/production/_ext/23466643/sys_devcon.o
 .comment       0x00000000       0x3d build/default/production/_ext/23466643/sys_devcon_pic32mx.o
 .comment       0x00000000       0x3d build/default/production/_ext/1667967065/sys_int_pic32.o
 .comment       0x00000000       0x3d build/default/production/_ext/357001740/croutine.o
 .comment       0x00000000       0x3d build/default/production/_ext/357001740/list.o
 .comment       0x00000000       0x3d build/default/production/_ext/357001740/queue.o
 .comment       0x00000000       0x3d build/default/production/_ext/357001740/tasks.o
 .comment       0x00000000       0x3d build/default/production/_ext/357001740/timers.o
 .comment       0x00000000       0x3d build/default/production/_ext/357001740/event_groups.o
 .comment       0x00000000       0x3d build/default/production/_ext/1663225769/heap_1.o
 .comment       0x00000000       0x3d build/default/production/_ext/201381206/port.o
 .comment       0x00000000       0x3d build/default/production/_ext/1360937237/mainapp.o
 .comment       0x00000000       0x3d build/default/production/_ext/1360937237/motor_control.o
 .comment       0x00000000       0x3d build/default/production/_ext/1360937237/uart_tx.o
 .comment       0x00000000       0x3d build/default/production/_ext/1360937237/uart_rx.o
 .comment       0x00000000       0x3d build/default/production/_ext/1361460060/drv_adc_static.o
 .comment       0x00000000       0x3d build/default/production/_ext/327000265/drv_usart_mapping.o
 .comment       0x00000000       0x3d build/default/production/_ext/327000265/drv_usart_static.o
 .comment       0x00000000       0x3d build/default/production/_ext/327000265/drv_usart_static_byte_model.o
 .comment       0x00000000       0x3d build/default/production/_ext/639803181/sys_clk_static.o
 .comment       0x00000000       0x3d build/default/production/_ext/822048611/sys_ports_static.o
 .comment       0x00000000       0x3d build/default/production/_ext/1688732426/system_init.o
 .comment       0x00000000       0x3d build/default/production/_ext/1688732426/system_interrupt.o
 .comment       0x00000000       0x3d build/default/production/_ext/1688732426/system_exceptions.o
 .comment       0x00000000       0x3d build/default/production/_ext/1360937237/main.o
 .comment       0x00000000       0x3d build/default/production/_ext/1688732426/system_tasks.o
 .comment       0x00000000       0x3d build/default/production/_ext/1688732426/rtos_hooks.o
 .comment       0x0000003c       0x18 c:/program files (x86)/microchip/xc32/v1.42/bin/bin/../../lib/gcc/pic32mx/4.8.3/../../../../pic32mx/lib\libpic32.a(memset.o)
                                 0x19 (size before relaxing)
 .comment       0x00000000       0x3d c:/program files (x86)/microchip/xc32/v1.42/bin/bin/../../lib/gcc/pic32mx/4.8.3/../../../../pic32mx/lib\libpic32.a(default-bootstrap-exception-handler.o)
 .comment       0x00000000       0x3d c:/program files (x86)/microchip/xc32/v1.42/bin/bin/../../lib/gcc/pic32mx/4.8.3/../../../../pic32mx/lib\libpic32.a(default-on-reset.o)
 .comment       0x00000000       0x3d c:/program files (x86)/microchip/xc32/v1.42/bin/bin/../../lib/gcc/pic32mx/4.8.3/../../../../pic32mx/lib\libpic32.a(default-on-bootstrap.o)
 .comment       0x00000000       0x3d c:/program files (x86)/microchip/xc32/v1.42/bin/bin/../../lib/gcc/pic32mx/4.8.3/../../../../pic32mx/lib\libpic32.a(defaultinterrupt.o)

.debug
 *(.debug)

.line
 *(.line)

.debug_srcinfo
 *(.debug_srcinfo)

.debug_sfnames
 *(.debug_sfnames)

.debug_aranges  0x00000000      0xb08
 *(.debug_aranges)
 .debug_aranges
                0x00000000       0x88 build/default/production/_ext/341040409/osal_freertos.o
 .debug_aranges
                0x00000088       0x78 build/default/production/_ext/23466643/sys_devcon.o
 .debug_aranges
                0x00000100       0x20 build/default/production/_ext/23466643/sys_devcon_pic32mx.o
 .debug_aranges
                0x00000120       0x48 build/default/production/_ext/1667967065/sys_int_pic32.o
 .debug_aranges
                0x00000168       0x18 build/default/production/_ext/357001740/croutine.o
 .debug_aranges
                0x00000180       0x40 build/default/production/_ext/357001740/list.o
 .debug_aranges
                0x000001c0       0xb0 build/default/production/_ext/357001740/queue.o
 .debug_aranges
                0x00000270      0x170 build/default/production/_ext/357001740/tasks.o
 .debug_aranges
                0x000003e0       0x18 build/default/production/_ext/357001740/timers.o
 .debug_aranges
                0x000003f8       0x60 build/default/production/_ext/357001740/event_groups.o
 .debug_aranges
                0x00000458       0x38 build/default/production/_ext/1663225769/heap_1.o
 .debug_aranges
                0x00000490       0x58 build/default/production/_ext/201381206/port.o
 .debug_aranges
                0x000004e8       0x20 build/default/production/_ext/201381206/port_asm.o
 .debug_aranges
                0x00000508       0x40 build/default/production/_ext/1360937237/mainapp.o
 .debug_aranges
                0x00000548       0x38 build/default/production/_ext/1360937237/motor_control.o
 .debug_aranges
                0x00000580       0x40 build/default/production/_ext/1360937237/uart_tx.o
 .debug_aranges
                0x000005c0       0x48 build/default/production/_ext/1360937237/uart_rx.o
 .debug_aranges
                0x00000608       0x78 build/default/production/_ext/1361460060/drv_adc_static.o
 .debug_aranges
                0x00000680       0xa8 build/default/production/_ext/327000265/drv_usart_mapping.o
 .debug_aranges
                0x00000728       0x78 build/default/production/_ext/327000265/drv_usart_static.o
 .debug_aranges
                0x000007a0       0x48 build/default/production/_ext/327000265/drv_usart_static_byte_model.o
 .debug_aranges
                0x000007e8       0x50 build/default/production/_ext/639803181/sys_clk_static.o
 .debug_aranges
                0x00000838      0x108 build/default/production/_ext/822048611/sys_ports_static.o
 .debug_aranges
                0x00000940       0x20 build/default/production/_ext/1688732426/system_init.o
 .debug_aranges
                0x00000960       0x40 build/default/production/_ext/1688732426/system_interrupt.o
 .debug_aranges
                0x000009a0       0x20 build/default/production/_ext/1688732426/system_exceptions.o
 .debug_aranges
                0x000009c0       0x20 build/default/production/_ext/1360937237/main.o
 .debug_aranges
                0x000009e0       0x48 build/default/production/_ext/1688732426/system_tasks.o
 .debug_aranges
                0x00000a28       0x38 build/default/production/_ext/1688732426/system_interrupt_a.o
 .debug_aranges
                0x00000a60       0x28 build/default/production/_ext/1688732426/rtos_hooks.o
 .debug_aranges
                0x00000a88       0x20 c:/program files (x86)/microchip/xc32/v1.42/bin/bin/../../lib/gcc/pic32mx/4.8.3/../../../../pic32mx/lib\libpic32.a(default-bootstrap-exception-handler.o)
 .debug_aranges
                0x00000aa8       0x20 c:/program files (x86)/microchip/xc32/v1.42/bin/bin/../../lib/gcc/pic32mx/4.8.3/../../../../pic32mx/lib\libpic32.a(default-on-reset.o)
 .debug_aranges
                0x00000ac8       0x20 c:/program files (x86)/microchip/xc32/v1.42/bin/bin/../../lib/gcc/pic32mx/4.8.3/../../../../pic32mx/lib\libpic32.a(default-on-bootstrap.o)
 .debug_aranges
                0x00000ae8       0x20 c:/program files (x86)/microchip/xc32/v1.42/bin/bin/../../lib/gcc/pic32mx/4.8.3/../../../../pic32mx/lib\libpic32.a(defaultinterrupt.o)

.debug_pubnames
 *(.debug_pubnames)

.debug_info     0x00000000    0x28339
 *(.debug_info .gnu.linkonce.wi.*)
 .debug_info    0x00000000      0xaa0 build/default/production/_ext/341040409/osal_freertos.o
 .debug_info    0x00000aa0     0x1160 build/default/production/_ext/23466643/sys_devcon.o
 .debug_info    0x00001c00      0xd51 build/default/production/_ext/23466643/sys_devcon_pic32mx.o
 .debug_info    0x00002951     0x15b8 build/default/production/_ext/1667967065/sys_int_pic32.o
 .debug_info    0x00003f09      0x181 build/default/production/_ext/357001740/croutine.o
 .debug_info    0x0000408a      0x471 build/default/production/_ext/357001740/list.o
 .debug_info    0x000044fb     0x1741 build/default/production/_ext/357001740/queue.o
 .debug_info    0x00005c3c     0x28dc build/default/production/_ext/357001740/tasks.o
 .debug_info    0x00008518      0x17f build/default/production/_ext/357001740/timers.o
 .debug_info    0x00008697      0xd53 build/default/production/_ext/357001740/event_groups.o
 .debug_info    0x000093ea      0x385 build/default/production/_ext/1663225769/heap_1.o
 .debug_info    0x0000976f     0x11b0 build/default/production/_ext/201381206/port.o
 .debug_info    0x0000a91f       0xcf build/default/production/_ext/201381206/port_asm.o
 .debug_info    0x0000a9ee     0x1829 build/default/production/_ext/1360937237/mainapp.o
 .debug_info    0x0000c217     0x15b6 build/default/production/_ext/1360937237/motor_control.o
 .debug_info    0x0000d7cd     0x16ee build/default/production/_ext/1360937237/uart_tx.o
 .debug_info    0x0000eebb     0x171d build/default/production/_ext/1360937237/uart_rx.o
 .debug_info    0x000105d8     0x3e4d build/default/production/_ext/1361460060/drv_adc_static.o
 .debug_info    0x00014425     0x1968 build/default/production/_ext/327000265/drv_usart_mapping.o
 .debug_info    0x00015d8d     0x4312 build/default/production/_ext/327000265/drv_usart_static.o
 .debug_info    0x0001a09f     0x1d3a build/default/production/_ext/327000265/drv_usart_static_byte_model.o
 .debug_info    0x0001bdd9     0x1642 build/default/production/_ext/639803181/sys_clk_static.o
 .debug_info    0x0001d41b     0x3ac9 build/default/production/_ext/822048611/sys_ports_static.o
 .debug_info    0x00020ee4     0x2127 build/default/production/_ext/1688732426/system_init.o
 .debug_info    0x0002300b     0x2a11 build/default/production/_ext/1688732426/system_interrupt.o
 .debug_info    0x00025a1c     0x1313 build/default/production/_ext/1688732426/system_exceptions.o
 .debug_info    0x00026d2f      0x19e build/default/production/_ext/1360937237/main.o
 .debug_info    0x00026ecd      0xe12 build/default/production/_ext/1688732426/system_tasks.o
 .debug_info    0x00027cdf       0x90 build/default/production/_ext/1688732426/system_interrupt_a.o
 .debug_info    0x00027d6f      0x246 build/default/production/_ext/1688732426/rtos_hooks.o
 .debug_info    0x00027fb5       0xf5 c:/program files (x86)/microchip/xc32/v1.42/bin/bin/../../lib/gcc/pic32mx/4.8.3/../../../../pic32mx/lib\libpic32.a(default-bootstrap-exception-handler.o)
 .debug_info    0x000280aa       0xcf c:/program files (x86)/microchip/xc32/v1.42/bin/bin/../../lib/gcc/pic32mx/4.8.3/../../../../pic32mx/lib\libpic32.a(default-on-reset.o)
 .debug_info    0x00028179       0xd7 c:/program files (x86)/microchip/xc32/v1.42/bin/bin/../../lib/gcc/pic32mx/4.8.3/../../../../pic32mx/lib\libpic32.a(default-on-bootstrap.o)
 .debug_info    0x00028250       0xe9 c:/program files (x86)/microchip/xc32/v1.42/bin/bin/../../lib/gcc/pic32mx/4.8.3/../../../../pic32mx/lib\libpic32.a(defaultinterrupt.o)

.debug_abbrev   0x00000000     0x32fb
 *(.debug_abbrev)
 .debug_abbrev  0x00000000      0x1fe build/default/production/_ext/341040409/osal_freertos.o
 .debug_abbrev  0x000001fe      0x26d build/default/production/_ext/23466643/sys_devcon.o
 .debug_abbrev  0x0000046b      0x16d build/default/production/_ext/23466643/sys_devcon_pic32mx.o
 .debug_abbrev  0x000005d8      0x1d0 build/default/production/_ext/1667967065/sys_int_pic32.o
 .debug_abbrev  0x000007a8       0x1b build/default/production/_ext/357001740/croutine.o
 .debug_abbrev  0x000007c3       0xf1 build/default/production/_ext/357001740/list.o
 .debug_abbrev  0x000008b4      0x2c4 build/default/production/_ext/357001740/queue.o
 .debug_abbrev  0x00000b78      0x35a build/default/production/_ext/357001740/tasks.o
 .debug_abbrev  0x00000ed2       0x1b build/default/production/_ext/357001740/timers.o
 .debug_abbrev  0x00000eed      0x29a build/default/production/_ext/357001740/event_groups.o
 .debug_abbrev  0x00001187      0x13f build/default/production/_ext/1663225769/heap_1.o
 .debug_abbrev  0x000012c6      0x2cf build/default/production/_ext/201381206/port.o
 .debug_abbrev  0x00001595       0x14 build/default/production/_ext/201381206/port_asm.o
 .debug_abbrev  0x000015a9      0x1ec build/default/production/_ext/1360937237/mainapp.o
 .debug_abbrev  0x00001795      0x147 build/default/production/_ext/1360937237/motor_control.o
 .debug_abbrev  0x000018dc      0x189 build/default/production/_ext/1360937237/uart_tx.o
 .debug_abbrev  0x00001a65      0x189 build/default/production/_ext/1360937237/uart_rx.o
 .debug_abbrev  0x00001bee      0x1ed build/default/production/_ext/1361460060/drv_adc_static.o
 .debug_abbrev  0x00001ddb      0x210 build/default/production/_ext/327000265/drv_usart_mapping.o
 .debug_abbrev  0x00001feb      0x382 build/default/production/_ext/327000265/drv_usart_static.o
 .debug_abbrev  0x0000236d      0x24f build/default/production/_ext/327000265/drv_usart_static_byte_model.o
 .debug_abbrev  0x000025bc      0x26a build/default/production/_ext/639803181/sys_clk_static.o
 .debug_abbrev  0x00002826      0x222 build/default/production/_ext/822048611/sys_ports_static.o
 .debug_abbrev  0x00002a48      0x2b0 build/default/production/_ext/1688732426/system_init.o
 .debug_abbrev  0x00002cf8      0x246 build/default/production/_ext/1688732426/system_interrupt.o
 .debug_abbrev  0x00002f3e       0x98 build/default/production/_ext/1688732426/system_exceptions.o
 .debug_abbrev  0x00002fd6       0x93 build/default/production/_ext/1360937237/main.o
 .debug_abbrev  0x00003069      0x149 build/default/production/_ext/1688732426/system_tasks.o
 .debug_abbrev  0x000031b2       0x12 build/default/production/_ext/1688732426/system_interrupt_a.o
 .debug_abbrev  0x000031c4       0x97 build/default/production/_ext/1688732426/rtos_hooks.o
 .debug_abbrev  0x0000325b       0x28 c:/program files (x86)/microchip/xc32/v1.42/bin/bin/../../lib/gcc/pic32mx/4.8.3/../../../../pic32mx/lib\libpic32.a(default-bootstrap-exception-handler.o)
 .debug_abbrev  0x00003283       0x28 c:/program files (x86)/microchip/xc32/v1.42/bin/bin/../../lib/gcc/pic32mx/4.8.3/../../../../pic32mx/lib\libpic32.a(default-on-reset.o)
 .debug_abbrev  0x000032ab       0x28 c:/program files (x86)/microchip/xc32/v1.42/bin/bin/../../lib/gcc/pic32mx/4.8.3/../../../../pic32mx/lib\libpic32.a(default-on-bootstrap.o)
 .debug_abbrev  0x000032d3       0x28 c:/program files (x86)/microchip/xc32/v1.42/bin/bin/../../lib/gcc/pic32mx/4.8.3/../../../../pic32mx/lib\libpic32.a(defaultinterrupt.o)

.debug_line     0x00000000     0x7083
 *(.debug_line)
 .debug_line    0x00000000      0x2c4 build/default/production/_ext/341040409/osal_freertos.o
 .debug_line    0x000002c4      0x5e7 build/default/production/_ext/23466643/sys_devcon.o
 .debug_line    0x000008ab      0x48f build/default/production/_ext/23466643/sys_devcon_pic32mx.o
 .debug_line    0x00000d3a      0x39e build/default/production/_ext/1667967065/sys_int_pic32.o
 .debug_line    0x000010d8       0x1d build/default/production/_ext/357001740/croutine.o
 .debug_line    0x000010f5      0x1e5 build/default/production/_ext/357001740/list.o
 .debug_line    0x000012da      0x48f build/default/production/_ext/357001740/queue.o
 .debug_line    0x00001769      0x7d8 build/default/production/_ext/357001740/tasks.o
 .debug_line    0x00001f41       0x1d build/default/production/_ext/357001740/timers.o
 .debug_line    0x00001f5e      0x32a build/default/production/_ext/357001740/event_groups.o
 .debug_line    0x00002288      0x21f build/default/production/_ext/1663225769/heap_1.o
 .debug_line    0x000024a7      0x240 build/default/production/_ext/201381206/port.o
 .debug_line    0x000026e7      0x120 build/default/production/_ext/201381206/port_asm.o
 .debug_line    0x00002807      0x3fb build/default/production/_ext/1360937237/mainapp.o
 .debug_line    0x00002c02      0x31d build/default/production/_ext/1360937237/motor_control.o
 .debug_line    0x00002f1f      0x34b build/default/production/_ext/1360937237/uart_tx.o
 .debug_line    0x0000326a      0x36c build/default/production/_ext/1360937237/uart_rx.o
 .debug_line    0x000035d6      0x749 build/default/production/_ext/1361460060/drv_adc_static.o
 .debug_line    0x00003d1f      0x42b build/default/production/_ext/327000265/drv_usart_mapping.o
 .debug_line    0x0000414a      0x8c3 build/default/production/_ext/327000265/drv_usart_static.o
 .debug_line    0x00004a0d      0x4d4 build/default/production/_ext/327000265/drv_usart_static_byte_model.o
 .debug_line    0x00004ee1      0x410 build/default/production/_ext/639803181/sys_clk_static.o
 .debug_line    0x000052f1      0x786 build/default/production/_ext/822048611/sys_ports_static.o
 .debug_line    0x00005a77      0x635 build/default/production/_ext/1688732426/system_init.o
 .debug_line    0x000060ac      0x592 build/default/production/_ext/1688732426/system_interrupt.o
 .debug_line    0x0000663e      0x1d6 build/default/production/_ext/1688732426/system_exceptions.o
 .debug_line    0x00006814       0xae build/default/production/_ext/1360937237/main.o
 .debug_line    0x000068c2      0x362 build/default/production/_ext/1688732426/system_tasks.o
 .debug_line    0x00006c24       0xa5 build/default/production/_ext/1688732426/system_interrupt_a.o
 .debug_line    0x00006cc9      0x139 build/default/production/_ext/1688732426/rtos_hooks.o
 .debug_line    0x00006e02       0xa9 c:/program files (x86)/microchip/xc32/v1.42/bin/bin/../../lib/gcc/pic32mx/4.8.3/../../../../pic32mx/lib\libpic32.a(default-bootstrap-exception-handler.o)
 .debug_line    0x00006eab       0x96 c:/program files (x86)/microchip/xc32/v1.42/bin/bin/../../lib/gcc/pic32mx/4.8.3/../../../../pic32mx/lib\libpic32.a(default-on-reset.o)
 .debug_line    0x00006f41       0x9a c:/program files (x86)/microchip/xc32/v1.42/bin/bin/../../lib/gcc/pic32mx/4.8.3/../../../../pic32mx/lib\libpic32.a(default-on-bootstrap.o)
 .debug_line    0x00006fdb       0xa8 c:/program files (x86)/microchip/xc32/v1.42/bin/bin/../../lib/gcc/pic32mx/4.8.3/../../../../pic32mx/lib\libpic32.a(defaultinterrupt.o)

.debug_frame    0x00000000     0x176c
 *(.debug_frame)
 .debug_frame   0x00000000      0x150 build/default/production/_ext/341040409/osal_freertos.o
 .debug_frame   0x00000150       0xe8 build/default/production/_ext/23466643/sys_devcon.o
 .debug_frame   0x00000238       0x28 build/default/production/_ext/23466643/sys_devcon_pic32mx.o
 .debug_frame   0x00000260       0x90 build/default/production/_ext/1667967065/sys_int_pic32.o
 .debug_frame   0x000002f0       0x60 build/default/production/_ext/357001740/list.o
 .debug_frame   0x00000350      0x214 build/default/production/_ext/357001740/queue.o
 .debug_frame   0x00000564      0x444 build/default/production/_ext/357001740/tasks.o
 .debug_frame   0x000009a8      0x108 build/default/production/_ext/357001740/event_groups.o
 .debug_frame   0x00000ab0       0x5c build/default/production/_ext/1663225769/heap_1.o
 .debug_frame   0x00000b0c       0xc0 build/default/production/_ext/201381206/port.o
 .debug_frame   0x00000bcc       0x8c build/default/production/_ext/1360937237/mainapp.o
 .debug_frame   0x00000c58       0x68 build/default/production/_ext/1360937237/motor_control.o
 .debug_frame   0x00000cc0       0x8c build/default/production/_ext/1360937237/uart_tx.o
 .debug_frame   0x00000d4c       0xa4 build/default/production/_ext/1360937237/uart_rx.o
 .debug_frame   0x00000df0       0xd0 build/default/production/_ext/1361460060/drv_adc_static.o
 .debug_frame   0x00000ec0      0x238 build/default/production/_ext/327000265/drv_usart_mapping.o
 .debug_frame   0x000010f8       0xfc build/default/production/_ext/327000265/drv_usart_static.o
 .debug_frame   0x000011f4       0x80 build/default/production/_ext/327000265/drv_usart_static_byte_model.o
 .debug_frame   0x00001274       0xa0 build/default/production/_ext/639803181/sys_clk_static.o
 .debug_frame   0x00001314      0x1f0 build/default/production/_ext/822048611/sys_ports_static.o
 .debug_frame   0x00001504       0x28 build/default/production/_ext/1688732426/system_init.o
 .debug_frame   0x0000152c       0x84 build/default/production/_ext/1688732426/system_interrupt.o
 .debug_frame   0x000015b0       0x28 build/default/production/_ext/1688732426/system_exceptions.o
 .debug_frame   0x000015d8       0x28 build/default/production/_ext/1360937237/main.o
 .debug_frame   0x00001600       0xa0 build/default/production/_ext/1688732426/system_tasks.o
 .debug_frame   0x000016a0       0x40 build/default/production/_ext/1688732426/rtos_hooks.o
 .debug_frame   0x000016e0       0x2c c:/program files (x86)/microchip/xc32/v1.42/bin/bin/../../lib/gcc/pic32mx/4.8.3/../../../../pic32mx/lib\libpic32.a(default-bootstrap-exception-handler.o)
 .debug_frame   0x0000170c       0x20 c:/program files (x86)/microchip/xc32/v1.42/bin/bin/../../lib/gcc/pic32mx/4.8.3/../../../../pic32mx/lib\libpic32.a(default-on-reset.o)
 .debug_frame   0x0000172c       0x20 c:/program files (x86)/microchip/xc32/v1.42/bin/bin/../../lib/gcc/pic32mx/4.8.3/../../../../pic32mx/lib\libpic32.a(default-on-bootstrap.o)
 .debug_frame   0x0000174c       0x20 c:/program files (x86)/microchip/xc32/v1.42/bin/bin/../../lib/gcc/pic32mx/4.8.3/../../../../pic32mx/lib\libpic32.a(defaultinterrupt.o)

.debug_str      0x00000000      0x712
 *(.debug_str)
 .debug_str     0x00000000       0x40 build/default/production/_ext/341040409/osal_freertos.o
 .debug_str     0x00000040       0x16 build/default/production/_ext/23466643/sys_devcon.o
 .debug_str     0x00000056        0x6 build/default/production/_ext/23466643/sys_devcon_pic32mx.o
 .debug_str     0x0000005c       0x2d build/default/production/_ext/1667967065/sys_int_pic32.o
 .debug_str     0x00000089        0x0 build/default/production/_ext/357001740/croutine.o
 .debug_str     0x00000089       0x2b build/default/production/_ext/357001740/list.o
 .debug_str     0x000000b4       0xf1 build/default/production/_ext/357001740/queue.o
 .debug_str     0x000001a5      0x191 build/default/production/_ext/357001740/tasks.o
 .debug_str     0x00000336        0x0 build/default/production/_ext/357001740/timers.o
 .debug_str     0x00000336       0xe6 build/default/production/_ext/357001740/event_groups.o
 .debug_str     0x0000041c       0x1d build/default/production/_ext/1663225769/heap_1.o
 .debug_str     0x00000439       0x37 build/default/production/_ext/201381206/port.o
 .debug_str     0x00000470        0xe build/default/production/_ext/1360937237/mainapp.o
 .debug_str     0x0000047e        0x0 build/default/production/_ext/1360937237/motor_control.o
 .debug_str     0x0000047e        0x0 build/default/production/_ext/1360937237/uart_tx.o
 .debug_str     0x0000047e        0x0 build/default/production/_ext/1360937237/uart_rx.o
 .debug_str     0x0000047e       0x8e build/default/production/_ext/1361460060/drv_adc_static.o
 .debug_str     0x0000050c       0x23 build/default/production/_ext/327000265/drv_usart_mapping.o
 .debug_str     0x0000052f       0xe2 build/default/production/_ext/327000265/drv_usart_static.o
 .debug_str     0x00000611       0x12 build/default/production/_ext/327000265/drv_usart_static_byte_model.o
 .debug_str     0x00000623       0x39 build/default/production/_ext/639803181/sys_clk_static.o
 .debug_str     0x0000065c       0x55 build/default/production/_ext/822048611/sys_ports_static.o
 .debug_str     0x000006b1       0x36 build/default/production/_ext/1688732426/system_init.o
 .debug_str     0x000006e7       0x22 build/default/production/_ext/1688732426/system_interrupt.o
 .debug_str     0x00000709        0x0 build/default/production/_ext/1688732426/system_exceptions.o
 .debug_str     0x00000709        0x0 build/default/production/_ext/1360937237/main.o
 .debug_str     0x00000709        0x0 build/default/production/_ext/1688732426/system_tasks.o
 .debug_str     0x00000709        0x9 build/default/production/_ext/1688732426/rtos_hooks.o
 .debug_str     0x00000712        0x0 c:/program files (x86)/microchip/xc32/v1.42/bin/bin/../../lib/gcc/pic32mx/4.8.3/../../../../pic32mx/lib\libpic32.a(default-bootstrap-exception-handler.o)
 .debug_str     0x00000712        0x0 c:/program files (x86)/microchip/xc32/v1.42/bin/bin/../../lib/gcc/pic32mx/4.8.3/../../../../pic32mx/lib\libpic32.a(default-on-reset.o)
 .debug_str     0x00000712        0x0 c:/program files (x86)/microchip/xc32/v1.42/bin/bin/../../lib/gcc/pic32mx/4.8.3/../../../../pic32mx/lib\libpic32.a(default-on-bootstrap.o)
 .debug_str     0x00000712        0x0 c:/program files (x86)/microchip/xc32/v1.42/bin/bin/../../lib/gcc/pic32mx/4.8.3/../../../../pic32mx/lib\libpic32.a(defaultinterrupt.o)

.debug_loc      0x00000000     0x519f
 *(.debug_loc)
 .debug_loc     0x00000000      0x40c build/default/production/_ext/341040409/osal_freertos.o
 .debug_loc     0x0000040c       0xf0 build/default/production/_ext/23466643/sys_devcon.o
 .debug_loc     0x000004fc       0xec build/default/production/_ext/23466643/sys_devcon_pic32mx.o
 .debug_loc     0x000005e8       0x8d build/default/production/_ext/1667967065/sys_int_pic32.o
 .debug_loc     0x00000675       0x31 build/default/production/_ext/357001740/list.o
 .debug_loc     0x000006a6      0xc93 build/default/production/_ext/357001740/queue.o
 .debug_loc     0x00001339     0x152a build/default/production/_ext/357001740/tasks.o
 .debug_loc     0x00002863      0x8ea build/default/production/_ext/357001740/event_groups.o
 .debug_loc     0x0000314d       0x49 build/default/production/_ext/1663225769/heap_1.o
 .debug_loc     0x00003196       0xea build/default/production/_ext/201381206/port.o
 .debug_loc     0x00003280       0x63 build/default/production/_ext/1360937237/uart_tx.o
 .debug_loc     0x000032e3       0xa4 build/default/production/_ext/1360937237/uart_rx.o
 .debug_loc     0x00003387      0x111 build/default/production/_ext/1361460060/drv_adc_static.o
 .debug_loc     0x00003498      0x69f build/default/production/_ext/327000265/drv_usart_mapping.o
 .debug_loc     0x00003b37      0x575 build/default/production/_ext/327000265/drv_usart_static.o
 .debug_loc     0x000040ac       0x74 build/default/production/_ext/327000265/drv_usart_static_byte_model.o
 .debug_loc     0x00004120       0x49 build/default/production/_ext/639803181/sys_clk_static.o
 .debug_loc     0x00004169      0xecf build/default/production/_ext/822048611/sys_ports_static.o
 .debug_loc     0x00005038       0x21 build/default/production/_ext/1688732426/system_init.o
 .debug_loc     0x00005059      0x112 build/default/production/_ext/1688732426/system_interrupt.o
 .debug_loc     0x0000516b       0x34 build/default/production/_ext/1688732426/rtos_hooks.o

.debug_macinfo
 *(.debug_macinfo)

.debug_weaknames
 *(.debug_weaknames)

.debug_funcnames
 *(.debug_funcnames)

.debug_typenames
 *(.debug_typenames)

.debug_varnames
 *(.debug_varnames)

.debug_pubtypes
 *(.debug_pubtypes)

.debug_ranges   0x00000000      0xa18
 *(.debug_ranges)
 .debug_ranges  0x00000000       0x78 build/default/production/_ext/341040409/osal_freertos.o
 .debug_ranges  0x00000078       0x68 build/default/production/_ext/23466643/sys_devcon.o
 .debug_ranges  0x000000e0       0x10 build/default/production/_ext/23466643/sys_devcon_pic32mx.o
 .debug_ranges  0x000000f0       0x50 build/default/production/_ext/1667967065/sys_int_pic32.o
 .debug_ranges  0x00000140       0x30 build/default/production/_ext/357001740/list.o
 .debug_ranges  0x00000170       0xa0 build/default/production/_ext/357001740/queue.o
 .debug_ranges  0x00000210      0x1a8 build/default/production/_ext/357001740/tasks.o
 .debug_ranges  0x000003b8       0x98 build/default/production/_ext/357001740/event_groups.o
 .debug_ranges  0x00000450       0x28 build/default/production/_ext/1663225769/heap_1.o
 .debug_ranges  0x00000478       0x48 build/default/production/_ext/201381206/port.o
 .debug_ranges  0x000004c0       0x30 build/default/production/_ext/1360937237/mainapp.o
 .debug_ranges  0x000004f0       0x28 build/default/production/_ext/1360937237/motor_control.o
 .debug_ranges  0x00000518       0x30 build/default/production/_ext/1360937237/uart_tx.o
 .debug_ranges  0x00000548       0x38 build/default/production/_ext/1360937237/uart_rx.o
 .debug_ranges  0x00000580       0x68 build/default/production/_ext/1361460060/drv_adc_static.o
 .debug_ranges  0x000005e8       0x98 build/default/production/_ext/327000265/drv_usart_mapping.o
 .debug_ranges  0x00000680       0x98 build/default/production/_ext/327000265/drv_usart_static.o
 .debug_ranges  0x00000718       0x38 build/default/production/_ext/327000265/drv_usart_static_byte_model.o
 .debug_ranges  0x00000750       0x40 build/default/production/_ext/639803181/sys_clk_static.o
 .debug_ranges  0x00000790       0xf8 build/default/production/_ext/822048611/sys_ports_static.o
 .debug_ranges  0x00000888       0x10 build/default/production/_ext/1688732426/system_init.o
 .debug_ranges  0x00000898       0xa0 build/default/production/_ext/1688732426/system_interrupt.o
 .debug_ranges  0x00000938       0x10 build/default/production/_ext/1688732426/system_exceptions.o
 .debug_ranges  0x00000948       0x10 build/default/production/_ext/1360937237/main.o
 .debug_ranges  0x00000958       0x38 build/default/production/_ext/1688732426/system_tasks.o
 .debug_ranges  0x00000990       0x30 build/default/production/_ext/1688732426/system_interrupt_a.o
 .debug_ranges  0x000009c0       0x18 build/default/production/_ext/1688732426/rtos_hooks.o
 .debug_ranges  0x000009d8       0x10 c:/program files (x86)/microchip/xc32/v1.42/bin/bin/../../lib/gcc/pic32mx/4.8.3/../../../../pic32mx/lib\libpic32.a(default-bootstrap-exception-handler.o)
 .debug_ranges  0x000009e8       0x10 c:/program files (x86)/microchip/xc32/v1.42/bin/bin/../../lib/gcc/pic32mx/4.8.3/../../../../pic32mx/lib\libpic32.a(default-on-reset.o)
 .debug_ranges  0x000009f8       0x10 c:/program files (x86)/microchip/xc32/v1.42/bin/bin/../../lib/gcc/pic32mx/4.8.3/../../../../pic32mx/lib\libpic32.a(default-on-bootstrap.o)
 .debug_ranges  0x00000a08       0x10 c:/program files (x86)/microchip/xc32/v1.42/bin/bin/../../lib/gcc/pic32mx/4.8.3/../../../../pic32mx/lib\libpic32.a(defaultinterrupt.o)

.gnu.attributes
                0x00000000       0x10
 *(.gnu.attributes)
 .gnu.attributes
                0x00000000       0x10 build/default/production/_ext/341040409/osal_freertos.o
 .gnu.attributes
                0x00000010       0x10 build/default/production/_ext/23466643/sys_devcon.o
 .gnu.attributes
                0x00000020       0x10 build/default/production/_ext/23466643/sys_devcon_pic32mx.o
 .gnu.attributes
                0x00000030       0x10 build/default/production/_ext/1667967065/sys_int_pic32.o
 .gnu.attributes
                0x00000040       0x10 build/default/production/_ext/357001740/croutine.o
 .gnu.attributes
                0x00000050       0x10 build/default/production/_ext/357001740/list.o
 .gnu.attributes
                0x00000060       0x10 build/default/production/_ext/357001740/queue.o
 .gnu.attributes
                0x00000070       0x10 build/default/production/_ext/357001740/tasks.o
 .gnu.attributes
                0x00000080       0x10 build/default/production/_ext/357001740/timers.o
 .gnu.attributes
                0x00000090       0x10 build/default/production/_ext/357001740/event_groups.o
 .gnu.attributes
                0x000000a0       0x10 build/default/production/_ext/1663225769/heap_1.o
 .gnu.attributes
                0x000000b0       0x10 build/default/production/_ext/201381206/port.o
 .gnu.attributes
                0x000000c0       0x10 build/default/production/_ext/1360937237/mainapp.o
 .gnu.attributes
                0x000000d0       0x10 build/default/production/_ext/1360937237/motor_control.o
 .gnu.attributes
                0x000000e0       0x10 build/default/production/_ext/1360937237/uart_tx.o
 .gnu.attributes
                0x000000f0       0x10 build/default/production/_ext/1360937237/uart_rx.o
 .gnu.attributes
                0x00000100       0x10 build/default/production/_ext/1361460060/drv_adc_static.o
 .gnu.attributes
                0x00000110       0x10 build/default/production/_ext/327000265/drv_usart_mapping.o
 .gnu.attributes
                0x00000120       0x10 build/default/production/_ext/327000265/drv_usart_static.o
 .gnu.attributes
                0x00000130       0x10 build/default/production/_ext/327000265/drv_usart_static_byte_model.o
 .gnu.attributes
                0x00000140       0x10 build/default/production/_ext/639803181/sys_clk_static.o
 .gnu.attributes
                0x00000150       0x10 build/default/production/_ext/822048611/sys_ports_static.o
 .gnu.attributes
                0x00000160       0x10 build/default/production/_ext/1688732426/system_init.o
 .gnu.attributes
                0x00000170       0x10 build/default/production/_ext/1688732426/system_interrupt.o
 .gnu.attributes
                0x00000180       0x10 build/default/production/_ext/1688732426/system_exceptions.o
 .gnu.attributes
                0x00000190       0x10 build/default/production/_ext/1360937237/main.o
 .gnu.attributes
                0x000001a0       0x10 build/default/production/_ext/1688732426/system_tasks.o
 .gnu.attributes
                0x000001b0       0x10 build/default/production/_ext/1688732426/rtos_hooks.o
 .gnu.attributes
                0x000001c0       0x10 c:/program files (x86)/microchip/xc32/v1.42/bin/bin/../../lib/gcc/pic32mx/4.8.3/../../../../pic32mx/lib\libpic32.a(default-bootstrap-exception-handler.o)
 .gnu.attributes
                0x000001d0       0x10 c:/program files (x86)/microchip/xc32/v1.42/bin/bin/../../lib/gcc/pic32mx/4.8.3/../../../../pic32mx/lib\libpic32.a(default-on-reset.o)
 .gnu.attributes
                0x000001e0       0x10 c:/program files (x86)/microchip/xc32/v1.42/bin/bin/../../lib/gcc/pic32mx/4.8.3/../../../../pic32mx/lib\libpic32.a(default-on-bootstrap.o)
 .gnu.attributes
                0x000001f0       0x10 c:/program files (x86)/microchip/xc32/v1.42/bin/bin/../../lib/gcc/pic32mx/4.8.3/../../../../pic32mx/lib\libpic32.a(defaultinterrupt.o)
LOAD c:/program files (x86)/microchip/xc32/v1.42/bin/bin/../../lib/gcc/pic32mx/4.8.3\libgcc.a
START GROUP
LOAD c:/program files (x86)/microchip/xc32/v1.42/bin/bin/../../lib/gcc/pic32mx/4.8.3/../../../../pic32mx/lib\libpic32.a
LOAD c:/program files (x86)/microchip/xc32/v1.42/bin/bin/../../lib/gcc/pic32mx/4.8.3/../../../../pic32mx/lib\libdebug.a
LOAD c:/program files (x86)/microchip/xc32/v1.42/bin/bin/../../lib/gcc/pic32mx/4.8.3/../../../../pic32mx/lib\libpic32.a
LOAD c:/program files (x86)/microchip/xc32/v1.42/bin/bin/../../lib/gcc/pic32mx/4.8.3/../../../../pic32mx/lib\libm.a
LOAD c:/program files (x86)/microchip/xc32/v1.42/bin/bin/../../lib/gcc/pic32mx/4.8.3/../../../../pic32mx/lib\libe.a
LOAD c:/program files (x86)/microchip/xc32/v1.42/bin/bin/../../lib/gcc/pic32mx/4.8.3/../../../../pic32mx/lib\libdsp.a
LOAD c:/program files (x86)/microchip/xc32/v1.42/bin/bin/../../lib/gcc/pic32mx/4.8.3\libgcc.a
LOAD c:/program files (x86)/microchip/xc32/v1.42/bin/bin/../../lib/gcc/pic32mx/4.8.3/../../../../pic32mx/lib\libc.a
LOAD c:/program files (x86)/microchip/xc32/v1.42/bin/bin/../../lib/gcc/pic32mx/4.8.3/../../../../pic32mx/lib\libc.a
LOAD c:/program files (x86)/microchip/xc32/v1.42/bin/bin/../../lib/gcc/pic32mx/4.8.3/../../../../pic32mx/lib\libpic32.a
END GROUP
LOAD c:/program files (x86)/microchip/xc32/v1.42/bin/bin/../../lib/gcc/pic32mx/4.8.3\libgcc.a
OUTPUT(dist/default/production/PacManRover.X.production.elf elf32-tradlittlemips)
LOAD stack
LOAD data_init

.reginfo        0x00000000       0x18
 .reginfo       0x00000000       0x18 c:/program files (x86)/microchip/xc32/v1.42/bin/bin/../../lib/gcc/pic32mx/4.8.3/../../../../pic32mx/lib/./proc/32MX795F512L/crt0_mips32r2.o

.stack          0xa000f7a8      0x400
 .stack         0xa000f7a8      0x400 stack

.bss            0xa0000084     0xf708
 .bss           0xa0000084     0xf000 build/default/production/_ext/1663225769/heap_1.o
 .bss           0xa000f084      0x640 build/default/production/_ext/201381206/port.o
                0xa000f084                xISRStack
 .bss           0xa000f6c4       0xc8 build/default/production/_ext/357001740/tasks.o

._debug_exception
                0xbfc00480       0x2c
 ._debug_exception
                0xbfc00480       0x2c c:/program files (x86)/microchip/xc32/v1.42/bin/bin/../../lib/gcc/pic32mx/4.8.3/../../../../pic32mx/lib\debug-exception-return.o
                0xbfc00480                __DbgExecReturn

.text           0x9d000000      0x454
 .text          0x9d000000      0x454 build/default/production/_ext/201381206/port_asm.o
                0x9d000000                vPortTickInterruptHandler
                0x9d0001ac                vPortStartFirstTask
                0x9d000274                vPortYieldISR

.text.xTaskGenericCreate
                0x9d000454      0x2e0
 .text.xTaskGenericCreate
                0x9d000454      0x2e0 build/default/production/_ext/357001740/tasks.o
                0x9d000454                xTaskGenericCreate

.text.xQueueGenericReceive
                0x9d000734      0x24c
 .text.xQueueGenericReceive
                0x9d000734      0x24c build/default/production/_ext/357001740/queue.o
                0x9d000734                xQueueGenericReceive

.text.xQueueGenericSend
                0x9d000980      0x208
 .text.xQueueGenericSend
                0x9d000980      0x208 build/default/production/_ext/357001740/queue.o
                0x9d000980                xQueueGenericSend

.DrvAdc_vector_text
                0x9d000b88      0x1b4
 .DrvAdc_vector_text
                0x9d000b88      0x1b4 build/default/production/_ext/1688732426/system_interrupt_a.o

.DrvUsartInstance0_vector_text
                0x9d000d3c      0x1b4
 .DrvUsartInstance0_vector_text
                0x9d000d3c      0x1b4 build/default/production/_ext/1688732426/system_interrupt_a.o

.text.xTaskIncrementTick
                0x9d000ef0      0x19c
 .text.xTaskIncrementTick
                0x9d000ef0      0x19c build/default/production/_ext/357001740/tasks.o
                0x9d000ef0                xTaskIncrementTick

.text.DRV_USART0_Initialize
                0x9d00108c      0x174
 .text.DRV_USART0_Initialize
                0x9d00108c      0x174 build/default/production/_ext/327000265/drv_usart_static.o
                0x9d00108c                DRV_USART0_Initialize

.text           0x9d001200      0x168
 .text          0x9d001200      0x168 c:/program files (x86)/microchip/xc32/v1.42/bin/bin/../../lib/gcc/pic32mx/4.8.3/../../../../pic32mx/lib\libpic32.a(memcpy.o)
                0x9d001200                memcpy

.text.xTaskResumeAll
                0x9d001368      0x154
 .text.xTaskResumeAll
                0x9d001368      0x154 build/default/production/_ext/357001740/tasks.o
                0x9d001368                xTaskResumeAll

.text.vTaskPriorityInherit
                0x9d0014bc      0x12c
 .text.vTaskPriorityInherit
                0x9d0014bc      0x12c build/default/production/_ext/357001740/tasks.o
                0x9d0014bc                vTaskPriorityInherit

.rodata         0x9d0015e8      0x128
 .rodata        0x9d0015e8      0x128 build/default/production/_ext/1688732426/system_exceptions.o

.text.DRV_ADC_Initialize
                0x9d001710      0x120
 .text.DRV_ADC_Initialize
                0x9d001710      0x120 build/default/production/_ext/1361460060/drv_adc_static.o
                0x9d001710                DRV_ADC_Initialize

.text.prvUnlockQueue
                0x9d001830      0x104
 .text.prvUnlockQueue
                0x9d001830      0x104 build/default/production/_ext/357001740/queue.o

.text.SYS_Tasks
                0x9d001934      0x104
 .text.SYS_Tasks
                0x9d001934      0x104 build/default/production/_ext/1688732426/system_tasks.o
                0x9d001934                SYS_Tasks

.text.prvCopyDataToQueue
                0x9d001a38       0xfc
 .text.prvCopyDataToQueue
                0x9d001a38       0xfc build/default/production/_ext/357001740/queue.o

.text.IntHandlerDrvUsartInstance0
                0x9d001b34       0xfc
 .text.IntHandlerDrvUsartInstance0
                0x9d001b34       0xfc build/default/production/_ext/1688732426/system_interrupt.o
                0x9d001b34                IntHandlerDrvUsartInstance0

.text.xTaskPriorityDisinherit
                0x9d001c30       0xf8
 .text.xTaskPriorityDisinherit
                0x9d001c30       0xf8 build/default/production/_ext/357001740/tasks.o
                0x9d001c30                xTaskPriorityDisinherit

.text.xQueueGenericSendFromISR
                0x9d001d28       0xe8
 .text.xQueueGenericSendFromISR
                0x9d001d28       0xe8 build/default/production/_ext/357001740/queue.o
                0x9d001d28                xQueueGenericSendFromISR

.text.vTaskSwitchContext
                0x9d001e10       0xe0
 .text.vTaskSwitchContext
                0x9d001e10       0xe0 build/default/production/_ext/357001740/tasks.o
                0x9d001e10                vTaskSwitchContext

.text.SYS_DEVCON_PerformanceConfig
                0x9d001ef0       0xdc
 .text.SYS_DEVCON_PerformanceConfig
                0x9d001ef0       0xdc build/default/production/_ext/23466643/sys_devcon_pic32mx.o
                0x9d001ef0                SYS_DEVCON_PerformanceConfig

.text.general_exception
                0x9d001fcc       0xdc
 .text.general_exception
                0x9d001fcc       0xdc c:/program files (x86)/microchip/xc32/v1.42/bin/bin/../../lib/gcc/pic32mx/4.8.3/../../../../pic32mx/lib\libpic32.a(general-exception.o)
                0x9d001fcc                _general_exception_context

.text.xQueueReceiveFromISR
                0x9d0020a8       0xd4
 .text.xQueueReceiveFromISR
                0x9d0020a8       0xd4 build/default/production/_ext/357001740/queue.o
                0x9d0020a8                xQueueReceiveFromISR

.text.xQueueGenericReset
                0x9d00217c       0xc4
 .text.xQueueGenericReset
                0x9d00217c       0xc4 build/default/production/_ext/357001740/queue.o
                0x9d00217c                xQueueGenericReset

.text.SYS_Initialize
                0x9d002240       0xc0
 .text.SYS_Initialize
                0x9d002240       0xc0 build/default/production/_ext/1688732426/system_init.o
                0x9d002240                SYS_Initialize

.text.xTaskRemoveFromEventList
                0x9d002300       0xbc
 .text.xTaskRemoveFromEventList
                0x9d002300       0xbc build/default/production/_ext/357001740/tasks.o
                0x9d002300                xTaskRemoveFromEventList

.text.pvPortMalloc
                0x9d0023bc       0xbc
 .text.pvPortMalloc
                0x9d0023bc       0xbc build/default/production/_ext/1663225769/heap_1.o
                0x9d0023bc                pvPortMalloc

.text.prvIdleTask
                0x9d002478       0xb4
 .text.prvIdleTask
                0x9d002478       0xb4 build/default/production/_ext/357001740/tasks.o

.text.sendMessageToBuffer
                0x9d00252c       0xa8
 .text.sendMessageToBuffer
                0x9d00252c       0xa8 build/default/production/_ext/1360937237/uart_tx.o
                0x9d00252c                sendMessageToBuffer

.text           0x9d0025d4       0xa8
 .text          0x9d0025d4       0xa8 c:/program files (x86)/microchip/xc32/v1.42/bin/bin/../../lib/gcc/pic32mx/4.8.3/../../../../pic32mx/lib\libpic32.a(memset.o)
                0x9d0025d4                memset

.text.xTaskCheckForTimeOut
                0x9d00267c       0xa0
 .text.xTaskCheckForTimeOut
                0x9d00267c       0xa0 build/default/production/_ext/357001740/tasks.o
                0x9d00267c                xTaskCheckForTimeOut

.text.MAINAPP_Tasks
                0x9d00271c       0x9c
 .text.MAINAPP_Tasks
                0x9d00271c       0x9c build/default/production/_ext/1360937237/mainapp.o
                0x9d00271c                MAINAPP_Tasks

.text.UART_RX_Tasks
                0x9d0027b8       0x98
 .text.UART_RX_Tasks
                0x9d0027b8       0x98 build/default/production/_ext/1360937237/uart_rx.o
                0x9d0027b8                UART_RX_Tasks

.text.xQueueGenericCreate
                0x9d002850       0x94
 .text.xQueueGenericCreate
                0x9d002850       0x94 build/default/production/_ext/357001740/queue.o
                0x9d002850                xQueueGenericCreate

.text.vTaskPlaceOnEventList
                0x9d0028e4       0x94
 .text.vTaskPlaceOnEventList
                0x9d0028e4       0x94 build/default/production/_ext/357001740/tasks.o
                0x9d0028e4                vTaskPlaceOnEventList

.text.vTaskStartScheduler
                0x9d002978       0x84
 .text.vTaskStartScheduler
                0x9d002978       0x84 build/default/production/_ext/357001740/tasks.o
                0x9d002978                vTaskStartScheduler

.text.filterAndSend
                0x9d0029fc       0x84
 .text.filterAndSend
                0x9d0029fc       0x84 build/default/production/_ext/1360937237/uart_rx.o
                0x9d0029fc                filterAndSend

.text.xQueueCreateMutex
                0x9d002a80       0x80
 .text.xQueueCreateMutex
                0x9d002a80       0x80 build/default/production/_ext/357001740/queue.o
                0x9d002a80                xQueueCreateMutex

.text.stringToMessage
                0x9d002b00       0x80
 .text.stringToMessage
                0x9d002b00       0x80 build/default/production/_ext/1360937237/uart_rx.o
                0x9d002b00                stringToMessage

.text.prvAddCurrentTaskToDelayedList
                0x9d002b80       0x70
 .text.prvAddCurrentTaskToDelayedList
                0x9d002b80       0x70 build/default/production/_ext/357001740/tasks.o

.dinit          0x9d002bf0       0x70
 .dinit         0x9d002bf0       0x70 data_init

.text.vApplicationSetupTickTimerInterrupt
                0x9d002c60       0x6c
 .text.vApplicationSetupTickTimerInterrupt
                0x9d002c60       0x6c build/default/production/_ext/201381206/port.o
                0x9d002c60                vApplicationSetupTickTimerInterrupt

.text.vTaskExitCritical
                0x9d002ccc       0x68
 .text.vTaskExitCritical
                0x9d002ccc       0x68 build/default/production/_ext/357001740/tasks.o
                0x9d002ccc                vTaskExitCritical

.text.vListInsert
                0x9d002d34       0x5c
 .text.vListInsert
                0x9d002d34       0x5c build/default/production/_ext/357001740/list.o
                0x9d002d34                vListInsert

.text.xPortStartScheduler
                0x9d002d90       0x5c
 .text.xPortStartScheduler
                0x9d002d90       0x5c build/default/production/_ext/201381206/port.o
                0x9d002d90                xPortStartScheduler

.text.SYS_DEVCON_SystemUnlock
                0x9d002dec       0x58
 .text.SYS_DEVCON_SystemUnlock
                0x9d002dec       0x58 build/default/production/_ext/23466643/sys_devcon.o
                0x9d002dec                SYS_DEVCON_SystemUnlock

.text.SYS_CLK_Initialize
                0x9d002e44       0x58
 .text.SYS_CLK_Initialize
                0x9d002e44       0x58 build/default/production/_ext/639803181/sys_clk_static.o
                0x9d002e44                SYS_CLK_Initialize

.text.main_entry
                0x9d002e9c       0x54
 .text.main_entry
                0x9d002e9c       0x54 c:/program files (x86)/microchip/xc32/v1.42/bin/bin/../../lib/gcc/pic32mx/4.8.3/../../../../pic32mx/lib/./proc/32MX795F512L/crt0_mips32r2.o
                0x9d002ed0                __crt0_exit

.text.pxPortInitialiseStack
                0x9d002ef0       0x54
 .text.pxPortInitialiseStack
                0x9d002ef0       0x54 build/default/production/_ext/201381206/port.o
                0x9d002ef0                pxPortInitialiseStack

.text.vPortIncrementTick
                0x9d002f44       0x54
 .text.vPortIncrementTick
                0x9d002f44       0x54 build/default/production/_ext/201381206/port.o
                0x9d002f44                vPortIncrementTick

.text.sendMessage
                0x9d002f98       0x54
 .text.sendMessage
                0x9d002f98       0x54 build/default/production/_ext/1360937237/mainapp.o
                0x9d002f98                sendMessage

.text.prvCopyDataFromQueue
                0x9d002fec       0x50
 .text.prvCopyDataFromQueue
                0x9d002fec       0x50 build/default/production/_ext/357001740/queue.o

.text.vTaskEnterCritical
                0x9d00303c       0x50
 .text.vTaskEnterCritical
                0x9d00303c       0x50 build/default/production/_ext/357001740/tasks.o
                0x9d00303c                vTaskEnterCritical

.rodata         0x9d00308c       0x50
 .rodata        0x9d00308c       0x50 build/default/production/_ext/1688732426/system_tasks.o

.text.SYS_DEVCON_SystemLock
                0x9d0030dc       0x48
 .text.SYS_DEVCON_SystemLock
                0x9d0030dc       0x48 build/default/production/_ext/23466643/sys_devcon.o
                0x9d0030dc                SYS_DEVCON_SystemLock

.text._bootstrap_exception_handler
                0x9d003124       0x48
 .text._bootstrap_exception_handler
                0x9d003124       0x48 c:/program files (x86)/microchip/xc32/v1.42/bin/bin/../../lib/gcc/pic32mx/4.8.3/../../../../pic32mx/lib\libpic32.a(default-bootstrap-exception-handler.o)
                0x9d003124                _bootstrap_exception_handler

.vector_default
                0x9d00316c       0x48
 .vector_default
                0x9d00316c       0x48 c:/program files (x86)/microchip/xc32/v1.42/bin/bin/../../lib/gcc/pic32mx/4.8.3/../../../../pic32mx/lib\libpic32.a(defaultinterrupt.o)
                0x9d00316c                _DefaultInterrupt

.text.uxListRemove
                0x9d0031b4       0x44
 .text.uxListRemove
                0x9d0031b4       0x44 build/default/production/_ext/357001740/list.o
                0x9d0031b4                uxListRemove

.text           0x9d0031f8       0x44
 .text          0x9d0031f8       0x44 c:/program files (x86)/microchip/xc32/v1.42/bin/bin/../../lib/gcc/pic32mx/4.8.3/../../../../pic32mx/lib\pic32_software_reset.o
                0x9d0031f8                __pic32_software_reset

.text.SYS_PORTS_Initialize
                0x9d00323c       0x40
 .text.SYS_PORTS_Initialize
                0x9d00323c       0x40 build/default/production/_ext/822048611/sys_ports_static.o
                0x9d00323c                SYS_PORTS_Initialize

.text._general_exception_handler
                0x9d00327c       0x40
 .text._general_exception_handler
                0x9d00327c       0x40 build/default/production/_ext/1688732426/system_exceptions.o
                0x9d00327c                _general_exception_handler

.text.OSAL_MUTEX_Create
                0x9d0032bc       0x3c
 .text.OSAL_MUTEX_Create
                0x9d0032bc       0x3c build/default/production/_ext/341040409/osal_freertos.o
                0x9d0032bc                OSAL_MUTEX_Create

.text.uxPortSetInterruptMaskFromISR
                0x9d0032f8       0x3c
 .text.uxPortSetInterruptMaskFromISR
                0x9d0032f8       0x3c build/default/production/_ext/201381206/port.o
                0x9d0032f8                uxPortSetInterruptMaskFromISR

.text.UART_TX_Tasks
                0x9d003334       0x3c
 .text.UART_TX_Tasks
                0x9d003334       0x3c build/default/production/_ext/1360937237/uart_tx.o
                0x9d003334                UART_TX_Tasks

.text.sendToTXBufferQueue
                0x9d003370       0x3c
 .text.sendToTXBufferQueue
                0x9d003370       0x3c build/default/production/_ext/1688732426/system_interrupt.o
                0x9d003370                sendToTXBufferQueue

.text.prvResetNextTaskUnblockTime
                0x9d0033ac       0x38
 .text.prvResetNextTaskUnblockTime
                0x9d0033ac       0x38 build/default/production/_ext/357001740/tasks.o

.text.sendToMainAppQueue
                0x9d0033e4       0x34
 .text.sendToMainAppQueue
                0x9d0033e4       0x34 build/default/production/_ext/1360937237/mainapp.o
                0x9d0033e4                sendToMainAppQueue

.text.sendToTXQueue
                0x9d003418       0x34
 .text.sendToTXQueue
                0x9d003418       0x34 build/default/production/_ext/1360937237/uart_tx.o
                0x9d003418                sendToTXQueue

.text.sendToRXQueueFromISR
                0x9d00344c       0x34
 .text.sendToRXQueueFromISR
                0x9d00344c       0x34 build/default/production/_ext/1360937237/uart_rx.o
                0x9d00344c                sendToRXQueueFromISR

.text.DRV_USART_Initialize
                0x9d003480       0x34
 .text.DRV_USART_Initialize
                0x9d003480       0x34 build/default/production/_ext/327000265/drv_usart_mapping.o
                0x9d003480                DRV_USART_Initialize

.text.vListInsertEnd
                0x9d0034b4       0x30
 .text.vListInsertEnd
                0x9d0034b4       0x30 build/default/production/_ext/357001740/list.o
                0x9d0034b4                vListInsertEnd

.text.prvTaskExitError
                0x9d0034e4       0x2c
 .text.prvTaskExitError
                0x9d0034e4       0x2c build/default/production/_ext/201381206/port.o

.text.UART_TX_Initialize
                0x9d003510       0x2c
 .text.UART_TX_Initialize
                0x9d003510       0x2c build/default/production/_ext/1360937237/uart_tx.o
                0x9d003510                UART_TX_Initialize

.text.UART_RX_Initialize
                0x9d00353c       0x2c
 .text.UART_RX_Initialize
                0x9d00353c       0x2c build/default/production/_ext/1360937237/uart_rx.o
                0x9d00353c                UART_RX_Initialize

.text.vApplicationStackOverflowHook
                0x9d003568       0x2c
 .text.vApplicationStackOverflowHook
                0x9d003568       0x2c build/default/production/_ext/1688732426/rtos_hooks.o
                0x9d003568                vApplicationStackOverflowHook

.text.vApplicationMallocFailedHook
                0x9d003594       0x2c
 .text.vApplicationMallocFailedHook
                0x9d003594       0x2c build/default/production/_ext/1688732426/rtos_hooks.o
                0x9d003594                vApplicationMallocFailedHook

.text.pvTaskIncrementMutexHeldCount
                0x9d0035c0       0x28
 .text.pvTaskIncrementMutexHeldCount
                0x9d0035c0       0x28 build/default/production/_ext/357001740/tasks.o
                0x9d0035c0                pvTaskIncrementMutexHeldCount

.text.MAINAPP_Initialize
                0x9d0035e8       0x28
 .text.MAINAPP_Initialize
                0x9d0035e8       0x28 build/default/production/_ext/1360937237/mainapp.o
                0x9d0035e8                MAINAPP_Initialize

.text.MOTOR_CONTROL_Initialize
                0x9d003610       0x28
 .text.MOTOR_CONTROL_Initialize
                0x9d003610       0x28 build/default/production/_ext/1360937237/motor_control.o
                0x9d003610                MOTOR_CONTROL_Initialize

.text.initializeBufferQueue
                0x9d003638       0x28
 .text.initializeBufferQueue
                0x9d003638       0x28 build/default/production/_ext/1688732426/system_interrupt.o
                0x9d003638                initializeBufferQueue

.text.vListInitialise
                0x9d003660       0x20
 .text.vListInitialise
                0x9d003660       0x20 build/default/production/_ext/357001740/list.o
                0x9d003660                vListInitialise

.text.main      0x9d003680       0x20
 .text.main     0x9d003680       0x20 build/default/production/_ext/1360937237/main.o
                0x9d003680                main

.text.SYS_DEVCON_JTAGDisable
                0x9d0036a0       0x1c
 .text.SYS_DEVCON_JTAGDisable
                0x9d0036a0       0x1c build/default/production/_ext/23466643/sys_devcon.o
                0x9d0036a0                SYS_DEVCON_JTAGDisable

.text.vPortClearInterruptMaskFromISR
                0x9d0036bc       0x1c
 .text.vPortClearInterruptMaskFromISR
                0x9d0036bc       0x1c build/default/production/_ext/201381206/port.o
                0x9d0036bc                vPortClearInterruptMaskFromISR

.text.SYS_INT_Initialize
                0x9d0036d8       0x18
 .text.SYS_INT_Initialize
                0x9d0036d8       0x18 build/default/production/_ext/1667967065/sys_int_pic32.o
                0x9d0036d8                SYS_INT_Initialize

.text.IntHandlerDrvAdc
                0x9d0036f0       0x18
 .text.IntHandlerDrvAdc
                0x9d0036f0       0x18 build/default/production/_ext/1688732426/system_interrupt.o
                0x9d0036f0                IntHandlerDrvAdc

.text._UART_RX_Tasks
                0x9d003708       0x18
 .text._UART_RX_Tasks
                0x9d003708       0x18 build/default/production/_ext/1688732426/system_tasks.o

.text._UART_TX_Tasks
                0x9d003720       0x18
 .text._UART_TX_Tasks
                0x9d003720       0x18 build/default/production/_ext/1688732426/system_tasks.o

.text._MOTOR_CONTROL_Tasks
                0x9d003738       0x18
 .text._MOTOR_CONTROL_Tasks
                0x9d003738       0x18 build/default/production/_ext/1688732426/system_tasks.o

.text._MAINAPP_Tasks
                0x9d003750       0x18
 .text._MAINAPP_Tasks
                0x9d003750       0x18 build/default/production/_ext/1688732426/system_tasks.o

.text._SYS_Tasks
                0x9d003768       0x18
 .text._SYS_Tasks
                0x9d003768       0x18 build/default/production/_ext/1688732426/system_tasks.o

.text           0x9d003780       0x18
 .text          0x9d003780       0x18 c:/program files (x86)/microchip/xc32/v1.42/bin/bin/../../lib/gcc/pic32mx/4.8.3/../../../../pic32mx/lib\libpic32.a(default-nmi-handler.o)
                0x9d003780                _nmi_handler

.text.SYS_DEVCON_Initialize
                0x9d003798       0x14
 .text.SYS_DEVCON_Initialize
                0x9d003798       0x14 build/default/production/_ext/23466643/sys_devcon.o
                0x9d003798                SYS_DEVCON_Initialize

.text.vTaskSuspendAll
                0x9d0037ac       0x14
 .text.vTaskSuspendAll
                0x9d0037ac       0x14 build/default/production/_ext/357001740/tasks.o
                0x9d0037ac                vTaskSuspendAll

.text.vTaskSetTimeOutState
                0x9d0037c0       0x14
 .text.vTaskSetTimeOutState
                0x9d0037c0       0x14 build/default/production/_ext/357001740/tasks.o
                0x9d0037c0                vTaskSetTimeOutState

.text.vTaskMissedYield
                0x9d0037d4       0x10
 .text.vTaskMissedYield
                0x9d0037d4       0x10 build/default/production/_ext/357001740/tasks.o
                0x9d0037d4                vTaskMissedYield

.text.SYS_CLK_SystemFrequencyGet
                0x9d0037e4        0xc
 .text.SYS_CLK_SystemFrequencyGet
                0x9d0037e4        0xc build/default/production/_ext/639803181/sys_clk_static.o
                0x9d0037e4                SYS_CLK_SystemFrequencyGet

.text.SYS_CLK_PeripheralFrequencyGet
                0x9d0037f0        0xc
 .text.SYS_CLK_PeripheralFrequencyGet
                0x9d0037f0        0xc build/default/production/_ext/639803181/sys_clk_static.o
                0x9d0037f0                SYS_CLK_PeripheralFrequencyGet

.text.SYS_DEVCON_Tasks
                0x9d0037fc        0x8
 .text.SYS_DEVCON_Tasks
                0x9d0037fc        0x8 build/default/production/_ext/23466643/sys_devcon.o
                0x9d0037fc                SYS_DEVCON_Tasks

.text.vListInitialiseItem
                0x9d003804        0x8
 .text.vListInitialiseItem
                0x9d003804        0x8 build/default/production/_ext/357001740/list.o
                0x9d003804                vListInitialiseItem

.rodata         0x9d00380c        0x8
 .rodata        0x9d00380c        0x8 build/default/production/_ext/357001740/tasks.o

.text.vPortFree
                0x9d003814        0x8
 .text.vPortFree
                0x9d003814        0x8 build/default/production/_ext/1663225769/heap_1.o
                0x9d003814                vPortFree

.text.MOTOR_CONTROL_Tasks
                0x9d00381c        0x8
 .text.MOTOR_CONTROL_Tasks
                0x9d00381c        0x8 build/default/production/_ext/1360937237/motor_control.o
                0x9d00381c                MOTOR_CONTROL_Tasks

.text._on_reset
                0x9d003824        0x8
 .text._on_reset
                0x9d003824        0x8 c:/program files (x86)/microchip/xc32/v1.42/bin/bin/../../lib/gcc/pic32mx/4.8.3/../../../../pic32mx/lib\libpic32.a(default-on-reset.o)
                0x9d003824                _on_reset

.text._on_bootstrap
                0x9d00382c        0x8
 .text._on_bootstrap
                0x9d00382c        0x8 c:/program files (x86)/microchip/xc32/v1.42/bin/bin/../../lib/gcc/pic32mx/4.8.3/../../../../pic32mx/lib\libpic32.a(default-on-bootstrap.o)
                0x9d00382c                _on_bootstrap

.rodata         0x9d003834        0x8
 .rodata        0x9d003834        0x4 build/default/production/_ext/201381206/port.o
                0x9d003834                xISRStackTop
 .rodata        0x9d003838        0x4 build/default/production/_ext/1688732426/system_init.o
                0x9d003838                sysDevconInit
